(dp1
S'files'
p2
(dp3
S'_usr_local_lib_python2_7_dist-packages_django_core_files_temp'
p4
(dp5
S'index'
p6
(dp7
S'html_filename'
p8
S'_usr_local_lib_python2_7_dist-packages_django_core_files_temp.html'
p9
sS'name'
p10
S'/usr/local/lib/python2.7/dist-packages/django/core/files/temp'
p11
sS'nums'
p12
ccopy_reg
_reconstructor
p13
(ccoverage.results
Numbers
p14
c__builtin__
object
p15
NtRp16
(dp17
S'n_files'
p18
I1
sS'n_branches'
p19
I0
sS'n_statements'
p20
I35
sS'n_excluded'
p21
I0
sS'n_partial_branches'
p22
I0
sS'n_missing'
p23
I28
sS'n_missing_branches'
p24
I0
sbssS'hash'
p25
S'?1\x91u0T|[< \x85\xce\xee~\x84?'
p26
ssS'_usr_local_lib_python2_7_dist-packages_django_core_files_utils'
p27
(dp28
g6
(dp29
g8
S'_usr_local_lib_python2_7_dist-packages_django_core_files_utils.html'
p30
sg10
S'/usr/local/lib/python2.7/dist-packages/django/core/files/utils'
p31
sg12
g13
(g14
g15
NtRp32
(dp33
g18
I1
sg19
I0
sg20
I19
sg21
I0
sg22
I0
sg23
I1
sg24
I0
sbssg25
S'\xf9\x11l\xd6u\x8d\xd2\xe3g\x05F\xd6{F\x15\xdc'
p34
ssS'_usr_local_lib_python2_7_dist-packages_django_contrib_admin___init__'
p35
(dp36
g6
(dp37
g8
S'_usr_local_lib_python2_7_dist-packages_django_contrib_admin___init__.html'
p38
sg10
S'/usr/local/lib/python2.7/dist-packages/django/contrib/admin/__init__'
p39
sg12
g13
(g14
g15
NtRp40
(dp41
g18
I1
sg19
I0
sg20
I10
sg21
I0
sg22
I0
sg23
I0
sg24
I0
sbssg25
S'\xf1o\x8f\xea\xe5lV\x88\x9eS|^\xa9\xa7c\x9d'
p42
ssS'_usr_local_lib_python2_7_dist-packages_django_contrib_sites___init__'
p43
(dp44
g6
(dp45
g8
S'_usr_local_lib_python2_7_dist-packages_django_contrib_sites___init__.html'
p46
sg10
S'/usr/local/lib/python2.7/dist-packages/django/contrib/sites/__init__'
p47
sg12
g13
(g14
g15
NtRp48
(dp49
g18
I1
sg19
I0
sg20
I1
sg21
I0
sg22
I0
sg23
I0
sg24
I0
sbssg25
S'\xc8"\xd2h\'\xe2C\x8b]\x17\x05\xd8?\x153}'
p50
ssS'_usr_local_lib_python2_7_dist-packages_django_utils_html'
p51
(dp52
g6
(dp53
g8
S'_usr_local_lib_python2_7_dist-packages_django_utils_html.html'
p54
sg10
S'/usr/local/lib/python2.7/dist-packages/django/utils/html'
p55
sg12
g13
(g14
g15
NtRp56
(dp57
g18
I1
sg19
I0
sg20
I186
sg21
I0
sg22
I0
sg23
I128
sg24
I0
sbssg25
S'4\x9b\x15c\xcb7\xc0\xe9g\x88\xad6:\x11\x98S'
p58
ssS'_usr_local_lib_python2_7_dist-packages_PIL_JpegPresets'
p59
(dp60
g6
(dp61
g8
S'_usr_local_lib_python2_7_dist-packages_PIL_JpegPresets.html'
p62
sg10
S'/usr/local/lib/python2.7/dist-packages/PIL/JpegPresets'
p63
sg12
g13
(g14
g15
NtRp64
(dp65
g18
I1
sg19
I0
sg20
I1
sg21
I0
sg22
I0
sg23
I0
sg24
I0
sbssg25
S'\x04\x08\x00\x12\x14o\xe9\xc2\x83\xf0\x1e\x07B\xaaH '
p66
ssS'_usr_local_lib_python2_7_dist-packages_django_test_client'
p67
(dp68
g6
(dp69
g8
S'_usr_local_lib_python2_7_dist-packages_django_test_client.html'
p70
sg10
S'/usr/local/lib/python2.7/dist-packages/django/test/client'
p71
sg12
g13
(g14
g15
NtRp72
(dp73
g18
I1
sg19
I0
sg20
I289
sg21
I0
sg22
I0
sg23
I141
sg24
I0
sbssg25
S'\xcc\xc2\xfc\xd7\xb3\xaf\x8b,TYo\xbdZ\x7f\xb4\xbf'
p74
ssS'_usr_local_lib_python2_7_dist-packages_django_core_management_base'
p75
(dp76
g6
(dp77
g8
S'_usr_local_lib_python2_7_dist-packages_django_core_management_base.html'
p78
sg10
S'/usr/local/lib/python2.7/dist-packages/django/core/management/base'
p79
sg12
g13
(g14
g15
NtRp80
(dp81
g18
I1
sg19
I0
sg20
I187
sg21
I0
sg22
I0
sg23
I83
sg24
I0
sbssg25
S'\xccx\xe4\x87\xa28\x95\x00\x11S\x07\x14\xdc_ \x04'
p82
ssS'_usr_local_lib_python2_7_dist-packages_imagekit_cachefiles_namers'
p83
(dp84
g6
(dp85
g8
S'_usr_local_lib_python2_7_dist-packages_imagekit_cachefiles_namers.html'
p86
sg10
S'/usr/local/lib/python2.7/dist-packages/imagekit/cachefiles/namers'
p87
sg12
g13
(g14
g15
NtRp88
(dp89
g18
I1
sg19
I0
sg20
I22
sg21
I0
sg22
I0
sg23
I13
sg24
I0
sbssg25
S'\xcc\xe6\xf3.\xea\xbb|O\x01vi\xc9@;\xaa\xb4'
p90
ssS'apps_home_admin'
p91
(dp92
g6
(dp93
g8
S'apps_home_admin.html'
p94
sg10
S'apps/home/admin'
p95
sg12
g13
(g14
g15
NtRp96
(dp97
g18
I1
sg19
I0
sg20
I20
sg21
I0
sg22
I0
sg23
I5
sg24
I0
sbssg25
S'\x161\xfcv\xaa\xb6\xb0\xf5\xe2RM\x9c\xbeI\x8a\x96'
p98
ssS'_usr_local_lib_python2_7_dist-packages_django_forms_models'
p99
(dp100
g6
(dp101
g8
S'_usr_local_lib_python2_7_dist-packages_django_forms_models.html'
p102
sg10
S'/usr/local/lib/python2.7/dist-packages/django/forms/models'
p103
sg12
g13
(g14
g15
NtRp104
(dp105
g18
I1
sg19
I0
sg20
I658
sg21
I0
sg22
I0
sg23
I484
sg24
I0
sbssg25
S'\xb9\x92u\xb9\xf6\xe4g\xaf\xda\xdbY\xc9l\xc5k:'
p106
ssS'_usr_local_lib_python2_7_dist-packages_django_contrib_auth_context_processors'
p107
(dp108
g6
(dp109
g8
S'_usr_local_lib_python2_7_dist-packages_django_contrib_auth_context_processors.html'
p110
sg10
S'/usr/local/lib/python2.7/dist-packages/django/contrib/auth/context_processors'
p111
sg12
g13
(g14
g15
NtRp112
(dp113
g18
I1
sg19
I0
sg20
I31
sg21
I0
sg22
I0
sg23
I14
sg24
I0
sbssg25
S"\xb4&\xba\xde\xf3\x14f\x08\x8a\xe4\xde\xf8\xcc\xf1'\xe8"
p114
ssS'_usr_local_lib_python2_7_dist-packages_django_core_handlers_base'
p115
(dp116
g6
(dp117
g8
S'_usr_local_lib_python2_7_dist-packages_django_core_handlers_base.html'
p118
sg10
S'/usr/local/lib/python2.7/dist-packages/django/core/handlers/base'
p119
sg12
g13
(g14
g15
NtRp120
(dp121
g18
I1
sg19
I0
sg20
I145
sg21
I0
sg22
I0
sg23
I68
sg24
I0
sbssg25
S' \xbdz\x0f:!\x1f\xf5\xd8\xdc7\t\xe1\xd3\x80R'
p122
ssS'_usr_local_lib_python2_7_dist-packages_django_core_signing'
p123
(dp124
g6
(dp125
g8
S'_usr_local_lib_python2_7_dist-packages_django_core_signing.html'
p126
sg10
S'/usr/local/lib/python2.7/dist-packages/django/core/signing'
p127
sg12
g13
(g14
g15
NtRp128
(dp129
g18
I1
sg19
I0
sg20
I87
sg21
I0
sg22
I0
sg23
I55
sg24
I0
sbssg25
S'\xdc)w\xd8\xa7R\xf2\x88g7\xe7&"\r\xe9\xea'
p130
ssS'_usr_local_lib_python2_7_dist-packages_django_views_generic_list'
p131
(dp132
g6
(dp133
g8
S'_usr_local_lib_python2_7_dist-packages_django_views_generic_list.html'
p134
sg10
S'/usr/local/lib/python2.7/dist-packages/django/views/generic/list'
p135
sg12
g13
(g14
g15
NtRp136
(dp137
g18
I1
sg19
I0
sg20
I90
sg21
I0
sg22
I0
sg23
I60
sg24
I0
sbssg25
S'm\rg\r\xb9\xa9O\xbe\xc6@{.kiH\x05'
p138
ssS'apps_product___init__'
p139
(dp140
g6
(dp141
g8
S'apps_product___init__.html'
p142
sg10
S'apps/product/__init__'
p143
sg12
g13
(g14
g15
NtRp144
(dp145
g18
I1
sg19
I0
sg20
I0
sg21
I0
sg22
I0
sg23
I0
sg24
I0
sbssg25
S'\xca\xf5\x9f\x7f\x88\xdfa\x831|T\x1d\xbc}\xa5v'
p146
ssS'_usr_local_lib_python2_7_dist-packages_django_utils_lru_cache'
p147
(dp148
g6
(dp149
g8
S'_usr_local_lib_python2_7_dist-packages_django_utils_lru_cache.html'
p150
sg10
S'/usr/local/lib/python2.7/dist-packages/django/utils/lru_cache'
p151
sg12
g13
(g14
g15
NtRp152
(dp153
g18
I1
sg19
I0
sg20
I106
sg21
I0
sg22
I0
sg23
I44
sg24
I0
sbssg25
S'\xfa\xba\xaaPp\x06\xba\x13\x9d\x89=\xaf\x98,8\xf4'
p154
ssS'_usr_local_lib_python2_7_dist-packages_imagekit_pkgmeta'
p155
(dp156
g6
(dp157
g8
S'_usr_local_lib_python2_7_dist-packages_imagekit_pkgmeta.html'
p158
sg10
S'/usr/local/lib/python2.7/dist-packages/imagekit/pkgmeta'
p159
sg12
g13
(g14
g15
NtRp160
(dp161
g18
I1
sg19
I0
sg20
I5
sg21
I0
sg22
I0
sg23
I0
sg24
I0
sbssg25
S'\x8e\x93\\TqY\x17;MU3Qk\xd7\x1aa'
p162
ssS'_usr_local_lib_python2_7_dist-packages_django_utils_version'
p163
(dp164
g6
(dp165
g8
S'_usr_local_lib_python2_7_dist-packages_django_utils_version.html'
p166
sg10
S'/usr/local/lib/python2.7/dist-packages/django/utils/version'
p167
sg12
g13
(g14
g15
NtRp168
(dp169
g18
I1
sg19
I0
sg20
I29
sg21
I0
sg22
I0
sg23
I15
sg24
I0
sbssg25
S'J-1Z\xb98\x042\xf7\xf3\xbdf\xfcf\x03\xc5'
p170
ssS'_usr_local_lib_python2_7_dist-packages_django_template_context'
p171
(dp172
g6
(dp173
g8
S'_usr_local_lib_python2_7_dist-packages_django_template_context.html'
p174
sg10
S'/usr/local/lib/python2.7/dist-packages/django/template/context'
p175
sg12
g13
(g14
g15
NtRp176
(dp177
g18
I1
sg19
I0
sg20
I121
sg21
I0
sg22
I0
sg23
I32
sg24
I0
sbssg25
S'\x81^\x9c\xd7J2\xa4\xb9\xd6\xbdb+\xf2\xf6D\xae'
p178
ssS'_usr_local_lib_python2_7_dist-packages_django_contrib_auth_backends'
p179
(dp180
g6
(dp181
g8
S'_usr_local_lib_python2_7_dist-packages_django_contrib_auth_backends.html'
p182
sg10
S'/usr/local/lib/python2.7/dist-packages/django/contrib/auth/backends'
p183
sg12
g13
(g14
g15
NtRp184
(dp185
g18
I1
sg19
I0
sg20
I71
sg21
I0
sg22
I0
sg23
I56
sg24
I0
sbssg25
S'\xad\xe9iLb\xad\x06\xef\xab={G`>\x1a\xd6'
p186
ssS'indiandelights_urls'
p187
(dp188
g6
(dp189
g8
S'indiandelights_urls.html'
p190
sg10
S'indiandelights/urls'
p191
sg12
g13
(g14
g15
NtRp192
(dp193
g18
I1
sg19
I0
sg20
I12
sg21
I0
sg22
I0
sg23
I0
sg24
I0
sbssg25
S'mJ[B-\x9c7xF\x03\x0f(\x01\xfd\xaa\xa7'
p194
ssS'_usr_local_lib_python2_7_dist-packages_debug_toolbar_panels_templates___init__'
p195
(dp196
g6
(dp197
g8
S'_usr_local_lib_python2_7_dist-packages_debug_toolbar_panels_templates___init__.html'
p198
sg10
S'/usr/local/lib/python2.7/dist-packages/debug_toolbar/panels/templates/__init__'
p199
sg12
g13
(g14
g15
NtRp200
(dp201
g18
I1
sg19
I0
sg20
I1
sg21
I0
sg22
I0
sg23
I0
sg24
I0
sbssg25
S'|\xd4\x91\xc7\xb1\x1c\x1e\x11Rir,/\xbd1:'
p202
ssS'_usr_local_lib_python2_7_dist-packages_django_db_models_sql_query'
p203
(dp204
g6
(dp205
g8
S'_usr_local_lib_python2_7_dist-packages_django_db_models_sql_query.html'
p206
sg10
S'/usr/local/lib/python2.7/dist-packages/django/db/models/sql/query'
p207
sg12
g13
(g14
g15
NtRp208
(dp209
g18
I1
sg19
I0
sg20
I1039
sg21
I0
sg22
I0
sg23
I526
sg24
I0
sbssg25
S'F\xed \xa4G\xd6\xd8V\xd1\x92\xaa\x05\xd2%]\x16'
p210
ssS'_usr_local_lib_python2_7_dist-packages_django_db_migrations_questioner'
p211
(dp212
g6
(dp213
g8
S'_usr_local_lib_python2_7_dist-packages_django_db_migrations_questioner.html'
p214
sg10
S'/usr/local/lib/python2.7/dist-packages/django/db/migrations/questioner'
p215
sg12
g13
(g14
g15
NtRp216
(dp217
g18
I1
sg19
I0
sg20
I87
sg21
I0
sg22
I0
sg23
I65
sg24
I0
sbssg25
S'\xd7"z\xf4\x808\x07\\`\x1e\x18m\xe246d'
p218
ssS'manage'
p219
(dp220
g6
(dp221
g8
S'manage.html'
p222
sg10
g219
sg12
g13
(g14
g15
NtRp223
(dp224
g18
I1
sg19
I0
sg20
I6
sg21
I0
sg22
I0
sg23
I0
sg24
I0
sbssg25
S'\xcc\xf5\x02\xafn\xeb\xfa3\x01\x85%\x0f\x7f\x10\xcf\x08'
p225
ssS'_usr_local_lib_python2_7_dist-packages_django_utils_module_loading'
p226
(dp227
g6
(dp228
g8
S'_usr_local_lib_python2_7_dist-packages_django_utils_module_loading.html'
p229
sg10
S'/usr/local/lib/python2.7/dist-packages/django/utils/module_loading'
p230
sg12
g13
(g14
g15
NtRp231
(dp232
g18
I1
sg19
I0
sg20
I89
sg21
I0
sg22
I0
sg23
I23
sg24
I0
sbssg25
S'\xce\x87]<\xc6\xb0\xe1\xc5KK\x0b\xb3o\xd8\xd7\xda'
p233
ssS'_usr_local_lib_python2_7_dist-packages_django_contrib_sessions_migrations___init__'
p234
(dp235
g6
(dp236
g8
S'_usr_local_lib_python2_7_dist-packages_django_contrib_sessions_migrations___init__.html'
p237
sg10
S'/usr/local/lib/python2.7/dist-packages/django/contrib/sessions/migrations/__init__'
p238
sg12
g13
(g14
g15
NtRp239
(dp240
g18
I1
sg19
I0
sg20
I0
sg21
I0
sg22
I0
sg23
I0
sg24
I0
sbssg25
S'\xca\xf5\x9f\x7f\x88\xdfa\x831|T\x1d\xbc}\xa5v'
p241
ssS'_usr_local_lib_python2_7_dist-packages_imagekit_models_fields_files'
p242
(dp243
g6
(dp244
g8
S'_usr_local_lib_python2_7_dist-packages_imagekit_models_fields_files.html'
p245
sg10
S'/usr/local/lib/python2.7/dist-packages/imagekit/models/fields/files'
p246
sg12
g13
(g14
g15
NtRp247
(dp248
g18
I1
sg19
I0
sg20
I11
sg21
I0
sg22
I0
sg23
I6
sg24
I0
sbssg25
S'Tq\x91\xf4e\x85(\x8f e\x03~6\x9c0\x1f'
p249
ssS'_usr_local_lib_python2_7_dist-packages_django_contrib_contenttypes___init__'
p250
(dp251
g6
(dp252
g8
S'_usr_local_lib_python2_7_dist-packages_django_contrib_contenttypes___init__.html'
p253
sg10
S'/usr/local/lib/python2.7/dist-packages/django/contrib/contenttypes/__init__'
p254
sg12
g13
(g14
g15
NtRp255
(dp256
g18
I1
sg19
I0
sg20
I1
sg21
I0
sg22
I0
sg23
I0
sg24
I0
sbssg25
S'"#\xe0P\xa1Rc{e<\xf5\x9e\x04\x96"N'
p257
ssS'_usr_local_lib_python2_7_dist-packages_django_utils_decorators'
p258
(dp259
g6
(dp260
g8
S'_usr_local_lib_python2_7_dist-packages_django_utils_decorators.html'
p261
sg10
S'/usr/local/lib/python2.7/dist-packages/django/utils/decorators'
p262
sg12
g13
(g14
g15
NtRp263
(dp264
g18
I1
sg19
I0
sg20
I64
sg21
I0
sg22
I0
sg23
I33
sg24
I0
sbssg25
S'7\xd0\xdcap\xc7\xf6A\x08\x8ag\xa3\xa2\x84QW'
p265
ssS'_usr_local_lib_python2_7_dist-packages_django_contrib_staticfiles_finders'
p266
(dp267
g6
(dp268
g8
S'_usr_local_lib_python2_7_dist-packages_django_contrib_staticfiles_finders.html'
p269
sg10
S'/usr/local/lib/python2.7/dist-packages/django/contrib/staticfiles/finders'
p270
sg12
g13
(g14
g15
NtRp271
(dp272
g18
I1
sg19
I0
sg20
I156
sg21
I0
sg22
I0
sg23
I118
sg24
I0
sbssg25
S'\xec\x86N\n?VQ\xb2\xba\x07t`\xeb\xeaWN'
p273
ssS'apps_product_views'
p274
(dp275
g6
(dp276
g8
S'apps_product_views.html'
p277
sg10
S'apps/product/views'
p278
sg12
g13
(g14
g15
NtRp279
(dp280
g18
I1
sg19
I0
sg20
I51
sg21
I0
sg22
I0
sg23
I42
sg24
I0
sbssg25
S'\xd4`\xdb\x16\xf2m\x1e\x87\x9f\t+\xbdE\xd2\xf9\xab'
p281
ssS'_usr_local_lib_python2_7_dist-packages_django_core_checks_messages'
p282
(dp283
g6
(dp284
g8
S'_usr_local_lib_python2_7_dist-packages_django_core_checks_messages.html'
p285
sg10
S'/usr/local/lib/python2.7/dist-packages/django/core/checks/messages'
p286
sg12
g13
(g14
g15
NtRp287
(dp288
g18
I1
sg19
I0
sg20
I54
sg21
I0
sg22
I0
sg23
I28
sg24
I0
sbssg25
S'\x95\xad\x93\x81\x8ez[\x9c\x97\xa8\x12+!\xb9(K'
p289
ssS'_usr_local_lib_python2_7_dist-packages_django_db_migrations_recorder'
p290
(dp291
g6
(dp292
g8
S'_usr_local_lib_python2_7_dist-packages_django_db_migrations_recorder.html'
p293
sg10
S'/usr/local/lib/python2.7/dist-packages/django/db/migrations/recorder'
p294
sg12
g13
(g14
g15
NtRp295
(dp296
g18
I1
sg19
I0
sg20
I37
sg21
I0
sg22
I0
sg23
I4
sg24
I0
sbssg25
S'\x85\xa4PB\x15\xf3\xad\xdf\xe7w\x17\xf2{S\x8c\xce'
p297
ssS'_usr_local_lib_python2_7_dist-packages_django_contrib_auth_management___init__'
p298
(dp299
g6
(dp300
g8
S'_usr_local_lib_python2_7_dist-packages_django_contrib_auth_management___init__.html'
p301
sg10
S'/usr/local/lib/python2.7/dist-packages/django/contrib/auth/management/__init__'
p302
sg12
g13
(g14
g15
NtRp303
(dp304
g18
I1
sg19
I0
sg20
I89
sg21
I0
sg22
I0
sg23
I40
sg24
I0
sbssg25
S'\x13\xf9w\x07\x96&\xa7\x9em\xdbZG}\xceZk'
p305
ssS'_usr_local_lib_python2_7_dist-packages_django_utils_numberformat'
p306
(dp307
g6
(dp308
g8
S'_usr_local_lib_python2_7_dist-packages_django_utils_numberformat.html'
p309
sg10
S'/usr/local/lib/python2.7/dist-packages/django/utils/numberformat'
p310
sg12
g13
(g14
g15
NtRp311
(dp312
g18
I1
sg19
I0
sg20
I31
sg21
I0
sg22
I0
sg23
I11
sg24
I0
sbssg25
S'\xe5\xb2GfS\xd5\xe8\xd2B\x07|M\x05\xfe\xf3)'
p313
ssS'_usr_local_lib_python2_7_dist-packages_PIL_ImageFile'
p314
(dp315
g6
(dp316
g8
S'_usr_local_lib_python2_7_dist-packages_PIL_ImageFile.html'
p317
sg10
S'/usr/local/lib/python2.7/dist-packages/PIL/ImageFile'
p318
sg12
g13
(g14
g15
NtRp319
(dp320
g18
I1
sg19
I0
sg20
I274
sg21
I0
sg22
I0
sg23
I153
sg24
I0
sbssg25
S"1\xf6\x08\xe4);0\x9e\xccO'\x8e]\xe2\xe2\x9f"
p321
ssS'_usr_local_lib_python2_7_dist-packages_debug_toolbar_settings'
p322
(dp323
g6
(dp324
g8
S'_usr_local_lib_python2_7_dist-packages_debug_toolbar_settings.html'
p325
sg10
S'/usr/local/lib/python2.7/dist-packages/debug_toolbar/settings'
p326
sg12
g13
(g14
g15
NtRp327
(dp328
g18
I1
sg19
I0
sg20
I95
sg21
I0
sg22
I0
sg23
I28
sg24
I0
sbssg25
S'D\x8b\xa2V<\x9c\xf7\xf3G\x8a$\xb2\xc6\xa7\xe5\x9b'
p329
ssS'_usr_local_lib_python2_7_dist-packages_django_contrib_auth___init__'
p330
(dp331
g6
(dp332
g8
S'_usr_local_lib_python2_7_dist-packages_django_contrib_auth___init__.html'
p333
sg10
S'/usr/local/lib/python2.7/dist-packages/django/contrib/auth/__init__'
p334
sg12
g13
(g14
g15
NtRp335
(dp336
g18
I1
sg19
I0
sg20
I98
sg21
I0
sg22
I0
sg23
I64
sg24
I0
sbssg25
S'\xd9a\x80\x82(\xe97\x9esw\x0c\xea\xda\x1c\x182'
p337
ssS'_usr_local_lib_python2_7_dist-packages_django_contrib_sessions_migrations_0001_initial'
p338
(dp339
g6
(dp340
g8
S'_usr_local_lib_python2_7_dist-packages_django_contrib_sessions_migrations_0001_initial.html'
p341
sg10
S'/usr/local/lib/python2.7/dist-packages/django/contrib/sessions/migrations/0001_initial'
p342
sg12
g13
(g14
g15
NtRp343
(dp344
g18
I1
sg19
I0
sg20
I5
sg21
I0
sg22
I0
sg23
I0
sg24
I0
sbssg25
S'\x10\n\xc7|\xbbZ\xf3*s%\x91\x7f\xa7\xc4n\xb8'
p345
ssS'_usr_local_lib_python2_7_dist-packages_django_utils_tree'
p346
(dp347
g6
(dp348
g8
S'_usr_local_lib_python2_7_dist-packages_django_utils_tree.html'
p349
sg10
S'/usr/local/lib/python2.7/dist-packages/django/utils/tree'
p350
sg12
g13
(g14
g15
NtRp351
(dp352
g18
I1
sg19
I0
sg20
I50
sg21
I0
sg22
I0
sg23
I19
sg24
I0
sbssg25
S'\xff\xf5\x8c\xa2\xa9\x83\x00p\xeb?u\x10\x12l\xd6U'
p353
ssS'_usr_local_lib_python2_7_dist-packages_imagekit_registry'
p354
(dp355
g6
(dp356
g8
S'_usr_local_lib_python2_7_dist-packages_imagekit_registry.html'
p357
sg10
S'/usr/local/lib/python2.7/dist-packages/imagekit/registry'
p358
sg12
g13
(g14
g15
NtRp359
(dp360
g18
I1
sg19
I0
sg20
I106
sg21
I0
sg22
I0
sg23
I32
sg24
I0
sbssg25
S'%k\xf5\xb5uN\xb6\xac\xfe.-io\x9c\xc5\xcb'
p361
ssS'indiandelights_settings_local'
p362
(dp363
g6
(dp364
g8
S'indiandelights_settings_local.html'
p365
sg10
S'indiandelights/settings/local'
p366
sg12
g13
(g14
g15
NtRp367
(dp368
g18
I1
sg19
I0
sg20
I11
sg21
I0
sg22
I0
sg23
I0
sg24
I0
sbssg25
S'\xff+\x0bx%\xbb(\x07\x0e\xb7\xf8{?\\M%'
p369
ssS'_usr_local_lib_python2_7_dist-packages_sqlparse_engine_grouping'
p370
(dp371
g6
(dp372
g8
S'_usr_local_lib_python2_7_dist-packages_sqlparse_engine_grouping.html'
p373
sg10
S'/usr/local/lib/python2.7/dist-packages/sqlparse/engine/grouping'
p374
sg12
g13
(g14
g15
NtRp375
(dp376
g18
I1
sg19
I0
sg20
I219
sg21
I0
sg22
I0
sg23
I194
sg24
I0
sbssg25
S'7l\xef\xf3,O\x07V\xc4\xd4b\xb9\x13\xe42#'
p377
ssS'_usr_local_lib_python2_7_dist-packages_django_template_loaders___init__'
p378
(dp379
g6
(dp380
g8
S'_usr_local_lib_python2_7_dist-packages_django_template_loaders___init__.html'
p381
sg10
S'/usr/local/lib/python2.7/dist-packages/django/template/loaders/__init__'
p382
sg12
g13
(g14
g15
NtRp383
(dp384
g18
I1
sg19
I0
sg20
I0
sg21
I0
sg22
I0
sg23
I0
sg24
I0
sbssg25
S'\xca\xf5\x9f\x7f\x88\xdfa\x831|T\x1d\xbc}\xa5v'
p385
ssS'_usr_local_lib_python2_7_dist-packages_django_db_models_fields_files'
p386
(dp387
g6
(dp388
g8
S'_usr_local_lib_python2_7_dist-packages_django_db_models_fields_files.html'
p389
sg10
S'/usr/local/lib/python2.7/dist-packages/django/db/models/fields/files'
p390
sg12
g13
(g14
g15
NtRp391
(dp392
g18
I1
sg19
I0
sg20
I247
sg21
I0
sg22
I0
sg23
I80
sg24
I0
sbssg25
S'\x8d\xbb\x8dc\xe2\xadzI\t\xea\xbe\x869\xdf\xd0k'
p393
ssS'_usr_local_lib_python2_7_dist-packages_django_test_runner'
p394
(dp395
g6
(dp396
g8
S'_usr_local_lib_python2_7_dist-packages_django_test_runner.html'
p397
sg10
S'/usr/local/lib/python2.7/dist-packages/django/test/runner'
p398
sg12
g13
(g14
g15
NtRp399
(dp400
g18
I1
sg19
I0
sg20
I163
sg21
I0
sg22
I0
sg23
I20
sg24
I0
sbssg25
S'\xad\xd1\xb1?z\xe1\xe5\x07\x8f\x90:\xbdy\xa4\x83\xef'
p401
ssS'_usr_local_lib_python2_7_dist-packages_django_db_migrations_executor'
p402
(dp403
g6
(dp404
g8
S'_usr_local_lib_python2_7_dist-packages_django_db_migrations_executor.html'
p405
sg10
S'/usr/local/lib/python2.7/dist-packages/django/db/migrations/executor'
p406
sg12
g13
(g14
g15
NtRp407
(dp408
g18
I1
sg19
I0
sg20
I94
sg21
I0
sg22
I0
sg23
I39
sg24
I0
sbssg25
S'2\x80+\xeeI)U\x0e3\xd9\xf9=\x8e\x19\xd8\xf1'
p409
ssS'_usr_local_lib_python2_7_dist-packages_django_utils_crypto'
p410
(dp411
g6
(dp412
g8
S'_usr_local_lib_python2_7_dist-packages_django_utils_crypto.html'
p413
sg10
S'/usr/local/lib/python2.7/dist-packages/django/utils/crypto'
p414
sg12
g13
(g14
g15
NtRp415
(dp416
g18
I1
sg19
I0
sg20
I75
sg21
I0
sg22
I0
sg23
I23
sg24
I0
sbssg25
S'Of\t\xb7\\\xd2f\xc6\xa5\xae\x9d\x15\xae\xfe\x1a]'
p417
ssS'_usr_local_lib_python2_7_dist-packages_debug_toolbar___init__'
p418
(dp419
g6
(dp420
g8
S'_usr_local_lib_python2_7_dist-packages_debug_toolbar___init__.html'
p421
sg10
S'/usr/local/lib/python2.7/dist-packages/debug_toolbar/__init__'
p422
sg12
g13
(g14
g15
NtRp423
(dp424
g18
I1
sg19
I0
sg20
I9
sg21
I0
sg22
I0
sg23
I2
sg24
I0
sbssg25
S'C\x87\xad\xe9&\xfc\xf3\xddE\xef\xd8Z\x03R\xf8\x1e'
p425
ssS'apps_home_migrations_0003_auto_20150112_1718'
p426
(dp427
g6
(dp428
g8
S'apps_home_migrations_0003_auto_20150112_1718.html'
p429
sg10
S'apps/home/migrations/0003_auto_20150112_1718'
p430
sg12
g13
(g14
g15
NtRp431
(dp432
g18
I1
sg19
I0
sg20
I6
sg21
I0
sg22
I0
sg23
I0
sg24
I0
sbssg25
S'\x18\x04[\x8ao\x10\xe9t\x11\x9e\xbd\xfa\x02\x82B\xcc'
p433
ssS'_usr_local_lib_python2_7_dist-packages_django_db_backends_creation'
p434
(dp435
g6
(dp436
g8
S'_usr_local_lib_python2_7_dist-packages_django_db_backends_creation.html'
p437
sg10
S'/usr/local/lib/python2.7/dist-packages/django/db/backends/creation'
p438
sg12
g13
(g14
g15
NtRp439
(dp440
g18
I1
sg19
I0
sg20
I284
sg21
I0
sg22
I0
sg23
I193
sg24
I0
sbssg25
S'K\x08I\xae\xbb,\xe2+u6\xcf\x98\x180zW'
p441
ssS'_usr_local_lib_python2_7_dist-packages_django_contrib_admin_templatetags_admin_static'
p442
(dp443
g6
(dp444
g8
S'_usr_local_lib_python2_7_dist-packages_django_contrib_admin_templatetags_admin_static.html'
p445
sg10
S'/usr/local/lib/python2.7/dist-packages/django/contrib/admin/templatetags/admin_static'
p446
sg12
g13
(g14
g15
NtRp447
(dp448
g18
I1
sg19
I0
sg20
I10
sg21
I0
sg22
I0
sg23
I5
sg24
I0
sbssg25
S'\x98M\x80^\x84\xdd\xa3\xcf\x85\x10\x1b*\xb6\xd9\xed\x12'
p449
ssS'_usr_local_lib_python2_7_dist-packages_django_conf_urls___init__'
p450
(dp451
g6
(dp452
g8
S'_usr_local_lib_python2_7_dist-packages_django_conf_urls___init__.html'
p453
sg10
S'/usr/local/lib/python2.7/dist-packages/django/conf/urls/__init__'
p454
sg12
g13
(g14
g15
NtRp455
(dp456
g18
I1
sg19
I0
sg20
I42
sg21
I0
sg22
I0
sg23
I5
sg24
I0
sbssg25
S'\xdb\x1f\x0f\xc7\x158\xbfJ\x87\x84Q\xf3 jb\xf8'
p457
ssS'_usr_local_lib_python2_7_dist-packages_django_core_checks___init__'
p458
(dp459
g6
(dp460
g8
S'_usr_local_lib_python2_7_dist-packages_django_core_checks___init__.html'
p461
sg10
S'/usr/local/lib/python2.7/dist-packages/django/core/checks/__init__'
p462
sg12
g13
(g14
g15
NtRp463
(dp464
g18
I1
sg19
I0
sg20
I7
sg21
I0
sg22
I0
sg23
I0
sg24
I0
sbssg25
S'X\xb2\r|\x19\x80\x9d\x00H\xa3\x06n\x8a\xa6\x90\xa1'
p465
ssS'_usr_local_lib_python2_7_dist-packages_PIL__binary'
p466
(dp467
g6
(dp468
g8
S'_usr_local_lib_python2_7_dist-packages_PIL__binary.html'
p469
sg10
S'/usr/local/lib/python2.7/dist-packages/PIL/_binary'
p470
sg12
g13
(g14
g15
NtRp471
(dp472
g18
I1
sg19
I0
sg20
I25
sg21
I0
sg22
I0
sg23
I12
sg24
I0
sbssg25
S'W\x0f_S\x95\x86\xbbV\x91\x1d\x03di\xe9,\xce'
p473
ssS'_usr_local_lib_python2_7_dist-packages_imagekit_hashers'
p474
(dp475
g6
(dp476
g8
S'_usr_local_lib_python2_7_dist-packages_imagekit_hashers.html'
p477
sg10
S'/usr/local/lib/python2.7/dist-packages/imagekit/hashers'
p478
sg12
g13
(g14
g15
NtRp479
(dp480
g18
I1
sg19
I0
sg20
I25
sg21
I0
sg22
I0
sg23
I3
sg24
I0
sbssg25
S'\xa6$Q\x18\xe5\x9e\x88\xe5\xa0\x16\xd7\x16\xf9|\xaa\x92'
p481
ssS'_usr_local_lib_python2_7_dist-packages_imagekit_management___init__'
p482
(dp483
g6
(dp484
g8
S'_usr_local_lib_python2_7_dist-packages_imagekit_management___init__.html'
p485
sg10
S'/usr/local/lib/python2.7/dist-packages/imagekit/management/__init__'
p486
sg12
g13
(g14
g15
NtRp487
(dp488
g18
I1
sg19
I0
sg20
I0
sg21
I0
sg22
I0
sg23
I0
sg24
I0
sbssg25
S'\xca\xf5\x9f\x7f\x88\xdfa\x831|T\x1d\xbc}\xa5v'
p489
ssS'_usr_local_lib_python2_7_dist-packages_django_utils_encoding'
p490
(dp491
g6
(dp492
g8
S'_usr_local_lib_python2_7_dist-packages_django_utils_encoding.html'
p493
sg10
S'/usr/local/lib/python2.7/dist-packages/django/utils/encoding'
p494
sg12
g13
(g14
g15
NtRp495
(dp496
g18
I1
sg19
I0
sg20
I98
sg21
I0
sg22
I0
sg23
I34
sg24
I0
sbssg25
S'\x97\xfdg\x12\xf6\xbf\xd6D\xd4\xcf\xd7\xb6\xc1\x84\x02\x85'
p497
ssS'_usr_local_lib_python2_7_dist-packages_sqlparse_lexer'
p498
(dp499
g6
(dp500
g8
S'_usr_local_lib_python2_7_dist-packages_sqlparse_lexer.html'
p501
sg10
S'/usr/local/lib/python2.7/dist-packages/sqlparse/lexer'
p502
sg12
g13
(g14
g15
NtRp503
(dp504
g18
I1
sg19
I0
sg20
I191
sg21
I0
sg22
I0
sg23
I160
sg24
I0
sbssg25
S'\ta\xfa\xe5\x8e\xaf\xc9\x8d+\xb0\x95\x1a\xcb\xaeC '
p505
ssS'_usr_local_lib_python2_7_dist-packages_django_test___init__'
p506
(dp507
g6
(dp508
g8
S'_usr_local_lib_python2_7_dist-packages_django_test___init__.html'
p509
sg10
S'/usr/local/lib/python2.7/dist-packages/django/test/__init__'
p510
sg12
g13
(g14
g15
NtRp511
(dp512
g18
I1
sg19
I0
sg20
I4
sg21
I0
sg22
I0
sg23
I0
sg24
I0
sbssg25
S'\xba/\x8e\xd7\x9b\xd2\xd7D\x00\x91?\x10\x97T\xcf\x18'
p513
ssS'_usr_local_lib_python2_7_dist-packages_imagekit_signals'
p514
(dp515
g6
(dp516
g8
S'_usr_local_lib_python2_7_dist-packages_imagekit_signals.html'
p517
sg10
S'/usr/local/lib/python2.7/dist-packages/imagekit/signals'
p518
sg12
g13
(g14
g15
NtRp519
(dp520
g18
I1
sg19
I0
sg20
I4
sg21
I0
sg22
I0
sg23
I0
sg24
I0
sbssg25
S'\x9b\xf1I\x9b\x17fC\x1d\x1cN\\\x9b\x16\x1a\x8c\xe8'
p521
ssS'_usr_local_lib_python2_7_dist-packages_imagekit_specs_sourcegroups'
p522
(dp523
g6
(dp524
g8
S'_usr_local_lib_python2_7_dist-packages_imagekit_specs_sourcegroups.html'
p525
sg10
S'/usr/local/lib/python2.7/dist-packages/imagekit/specs/sourcegroups'
p526
sg12
g13
(g14
g15
NtRp527
(dp528
g18
I1
sg19
I0
sg20
I74
sg21
I0
sg22
I0
sg23
I8
sg24
I0
sbssg25
S'\xda\xa3{\xc5QOW\rX\x0f\xbc\x03\xe08\xc3D'
p529
ssS'_usr_local_lib_python2_7_dist-packages_appconf___init__'
p530
(dp531
g6
(dp532
g8
S'_usr_local_lib_python2_7_dist-packages_appconf___init__.html'
p533
sg10
S'/usr/local/lib/python2.7/dist-packages/appconf/__init__'
p534
sg12
g13
(g14
g15
NtRp535
(dp536
g18
I1
sg19
I0
sg20
I3
sg21
I0
sg22
I0
sg23
I0
sg24
I0
sbssg25
S'\xd5\xde\xf0m\xc35)^]~\x00\xc3\x03n\xbeN'
p537
ssS'_usr_local_lib_python2_7_dist-packages_django_contrib_staticfiles_utils'
p538
(dp539
g6
(dp540
g8
S'_usr_local_lib_python2_7_dist-packages_django_contrib_staticfiles_utils.html'
p541
sg10
S'/usr/local/lib/python2.7/dist-packages/django/contrib/staticfiles/utils'
p542
sg12
g13
(g14
g15
NtRp543
(dp544
g18
I1
sg19
I0
sg20
I37
sg21
I0
sg22
I0
sg23
I30
sg24
I0
sbssg25
S'\x9b\xc6\x0e[\xa9\xbeI4\x92\xcaz\xb4e\xdc\xdc\xf4'
p545
ssS'_usr_local_lib_python2_7_dist-packages_django_contrib_sessions_backends___init__'
p546
(dp547
g6
(dp548
g8
S'_usr_local_lib_python2_7_dist-packages_django_contrib_sessions_backends___init__.html'
p549
sg10
S'/usr/local/lib/python2.7/dist-packages/django/contrib/sessions/backends/__init__'
p550
sg12
g13
(g14
g15
NtRp551
(dp552
g18
I1
sg19
I0
sg20
I0
sg21
I0
sg22
I0
sg23
I0
sg24
I0
sbssg25
S'\xca\xf5\x9f\x7f\x88\xdfa\x831|T\x1d\xbc}\xa5v'
p553
ssS'_usr_local_lib_python2_7_dist-packages_django_template_loaders_filesystem'
p554
(dp555
g6
(dp556
g8
S'_usr_local_lib_python2_7_dist-packages_django_template_loaders_filesystem.html'
p557
sg10
S'/usr/local/lib/python2.7/dist-packages/django/template/loaders/filesystem'
p558
sg12
g13
(g14
g15
NtRp559
(dp560
g18
I1
sg19
I0
sg20
I29
sg21
I0
sg22
I0
sg23
I8
sg24
I0
sbssg25
S'\x8a[)\xb0vXvFrp=\n\xa2\xc3\xb4\x13'
p561
ssS'_usr_local_lib_python2_7_dist-packages_appconf_base'
p562
(dp563
g6
(dp564
g8
S'_usr_local_lib_python2_7_dist-packages_appconf_base.html'
p565
sg10
S'/usr/local/lib/python2.7/dist-packages/appconf/base'
p566
sg12
g13
(g14
g15
NtRp567
(dp568
g18
I1
sg19
I0
sg20
I94
sg21
I0
sg22
I0
sg23
I15
sg24
I0
sbssg25
S'\xd1\xfdc\xe5t\xea\xa1\xde&\x7ff\xe7\r+\x81J'
p569
ssS'_usr_local_lib_python2_7_dist-packages_django_contrib_messages_storage___init__'
p570
(dp571
g6
(dp572
g8
S'_usr_local_lib_python2_7_dist-packages_django_contrib_messages_storage___init__.html'
p573
sg10
S'/usr/local/lib/python2.7/dist-packages/django/contrib/messages/storage/__init__'
p574
sg12
g13
(g14
g15
NtRp575
(dp576
g18
I1
sg19
I0
sg20
I4
sg21
I0
sg22
I0
sg23
I0
sg24
I0
sbssg25
S'\x1b\xd4\xf4I\xe8\x15\xcc\xd9Y+R}g\xbb;\x9d'
p577
ssS'_usr_local_lib_python2_7_dist-packages_django_contrib_contenttypes_views'
p578
(dp579
g6
(dp580
g8
S'_usr_local_lib_python2_7_dist-packages_django_contrib_contenttypes_views.html'
p581
sg10
S'/usr/local/lib/python2.7/dist-packages/django/contrib/contenttypes/views'
p582
sg12
g13
(g14
g15
NtRp583
(dp584
g18
I1
sg19
I0
sg20
I53
sg21
I0
sg22
I0
sg23
I45
sg24
I0
sbssg25
S'\x0bH\xab\x1e\xb3\xd0\xb0&\xe9F\xe7\xb2q\xe2>\xa3'
p585
ssS'_usr_local_lib_python2_7_dist-packages_django_dispatch_dispatcher'
p586
(dp587
g6
(dp588
g8
S'_usr_local_lib_python2_7_dist-packages_django_dispatch_dispatcher.html'
p589
sg10
S'/usr/local/lib/python2.7/dist-packages/django/dispatch/dispatcher'
p590
sg12
g13
(g14
g15
NtRp591
(dp592
g18
I1
sg19
I0
sg20
I135
sg21
I0
sg22
I0
sg23
I22
sg24
I0
sbssg25
S'\xad\x07R\x9f\xbb\xc4E |\xc1\x11\x07$\x10\xb5A'
p593
ssS'_usr_local_lib_python2_7_dist-packages_django_utils_timesince'
p594
(dp595
g6
(dp596
g8
S'_usr_local_lib_python2_7_dist-packages_django_utils_timesince.html'
p597
sg10
S'/usr/local/lib/python2.7/dist-packages/django/utils/timesince'
p598
sg12
g13
(g14
g15
NtRp599
(dp600
g18
I1
sg19
I0
sg20
I30
sg21
I0
sg22
I0
sg23
I23
sg24
I0
sbssg25
S'\xea\x9f\xdaYp\xa9#\xe8\xa5\xa7\xf2\xd1\xb8\x06\xcc%'
p601
ssS'_usr_local_lib_python2_7_dist-packages_django_db_migrations_operations___init__'
p602
(dp603
g6
(dp604
g8
S'_usr_local_lib_python2_7_dist-packages_django_db_migrations_operations___init__.html'
p605
sg10
S'/usr/local/lib/python2.7/dist-packages/django/db/migrations/operations/__init__'
p606
sg12
g13
(g14
g15
NtRp607
(dp608
g18
I1
sg19
I0
sg20
I4
sg21
I0
sg22
I0
sg23
I0
sg24
I0
sbssg25
S'\x80!\xfc?\xf5\xe6\xab)\xd4\xad8\x02\x86s\x0f<'
p609
ssS'_usr_local_lib_python2_7_dist-packages_django_contrib_contenttypes_admin'
p610
(dp611
g6
(dp612
g8
S'_usr_local_lib_python2_7_dist-packages_django_contrib_contenttypes_admin.html'
p613
sg10
S'/usr/local/lib/python2.7/dist-packages/django/contrib/contenttypes/admin'
p614
sg12
g13
(g14
g15
NtRp615
(dp616
g18
I1
sg19
I0
sg20
I55
sg21
I0
sg22
I0
sg23
I32
sg24
I0
sbssg25
S'\xa6G7nJ\xd5\xec\xea;r\xfd\x15\n\xe1\xa9\x82'
p617
ssS'apps_product_models'
p618
(dp619
g6
(dp620
g8
S'apps_product_models.html'
p621
sg10
S'apps/product/models'
p622
sg12
g13
(g14
g15
NtRp623
(dp624
g18
I1
sg19
I0
sg20
I5
sg21
I0
sg22
I0
sg23
I0
sg24
I0
sbssg25
S'F \xad#W\xae\x0f\xd6`>\x916Y\x8eC\xa3'
p625
ssS'_usr_local_lib_python2_7_dist-packages_debug_toolbar_panels_sql_views'
p626
(dp627
g6
(dp628
g8
S'_usr_local_lib_python2_7_dist-packages_debug_toolbar_panels_sql_views.html'
p629
sg10
S'/usr/local/lib/python2.7/dist-packages/debug_toolbar/panels/sql/views'
p630
sg12
g13
(g14
g15
NtRp631
(dp632
g18
I1
sg19
I0
sg20
I58
sg21
I0
sg22
I0
sg23
I50
sg24
I0
sbssg25
S'5\xa9\x85\xec\x1e#b\x12f\xb3`\x1e\xd5\xa4\t!'
p633
ssS'_usr_local_lib_python2_7_dist-packages_django_dispatch___init__'
p634
(dp635
g6
(dp636
g8
S'_usr_local_lib_python2_7_dist-packages_django_dispatch___init__.html'
p637
sg10
S'/usr/local/lib/python2.7/dist-packages/django/dispatch/__init__'
p638
sg12
g13
(g14
g15
NtRp639
(dp640
g18
I1
sg19
I0
sg20
I1
sg21
I0
sg22
I0
sg23
I0
sg24
I0
sbssg25
S'D\x18\xd9\x97? \x11\xf4^{\xf6U\x0e\xef\x7fZ'
p641
ssS'_usr_local_lib_python2_7_dist-packages_django_contrib_contenttypes_apps'
p642
(dp643
g6
(dp644
g8
S'_usr_local_lib_python2_7_dist-packages_django_contrib_contenttypes_apps.html'
p645
sg10
S'/usr/local/lib/python2.7/dist-packages/django/contrib/contenttypes/apps'
p646
sg12
g13
(g14
g15
NtRp647
(dp648
g18
I1
sg19
I0
sg20
I9
sg21
I0
sg22
I0
sg23
I0
sg24
I0
sbssg25
S'J\xbf,\xb6\x0e~K\n\xadl\xf0\xb6\xb1d:\x0f'
p649
ssS'_usr_local_lib_python2_7_dist-packages_django_core_management_sql'
p650
(dp651
g6
(dp652
g8
S'_usr_local_lib_python2_7_dist-packages_django_core_management_sql.html'
p653
sg10
S'/usr/local/lib/python2.7/dist-packages/django/core/management/sql'
p654
sg12
g13
(g14
g15
NtRp655
(dp656
g18
I1
sg19
I0
sg20
I152
sg21
I0
sg22
I0
sg23
I113
sg24
I0
sbssg25
S'\xfd~\x0fo\x91\xaf\xc7Ta\xf3\x84G\xe2\x8a\xd7\x07'
p657
ssS'_usr_local_lib_python2_7_dist-packages_django_views_decorators_cache'
p658
(dp659
g6
(dp660
g8
S'_usr_local_lib_python2_7_dist-packages_django_views_decorators_cache.html'
p661
sg10
S'/usr/local/lib/python2.7/dist-packages/django/views/decorators/cache'
p662
sg12
g13
(g14
g15
NtRp663
(dp664
g18
I1
sg19
I0
sg20
I27
sg21
I0
sg22
I0
sg23
I18
sg24
I0
sbssg25
S'\x0f\xeb*^\xc3\xf7I\xc49Y\xaed\xdf9\xac0'
p665
ssS'_usr_local_lib_python2_7_dist-packages_django_core_cache_backends_dummy'
p666
(dp667
g6
(dp668
g8
S'_usr_local_lib_python2_7_dist-packages_django_core_cache_backends_dummy.html'
p669
sg10
S'/usr/local/lib/python2.7/dist-packages/django/core/cache/backends/dummy'
p670
sg12
g13
(g14
g15
NtRp671
(dp672
g18
I1
sg19
I0
sg20
I32
sg21
I0
sg22
I0
sg23
I12
sg24
I0
sbssg25
S'xA\xd2V\xee\x97\x82%gP@\x87\xe6\xa2k<'
p673
ssS'_usr_local_lib_python2_7_dist-packages_django_forms___init__'
p674
(dp675
g6
(dp676
g8
S'_usr_local_lib_python2_7_dist-packages_django_forms___init__.html'
p677
sg10
S'/usr/local/lib/python2.7/dist-packages/django/forms/__init__'
p678
sg12
g13
(g14
g15
NtRp679
(dp680
g18
I1
sg19
I0
sg20
I6
sg21
I0
sg22
I0
sg23
I0
sg24
I0
sbssg25
S'\xd9\x11j\xf9_X\x911mp\xbe\xe8s^\x8f\x84'
p681
ssS'_usr_local_lib_python2_7_dist-packages_django_db_models_related'
p682
(dp683
g6
(dp684
g8
S'_usr_local_lib_python2_7_dist-packages_django_db_models_related.html'
p685
sg10
S'/usr/local/lib/python2.7/dist-packages/django/db/models/related'
p686
sg12
g13
(g14
g15
NtRp687
(dp688
g18
I1
sg19
I0
sg20
I35
sg21
I0
sg22
I0
sg23
I12
sg24
I0
sbssg25
S'{\x80\xd3\xf9<\x14\x0b\xa5\xd4~\x872d\xc2p\x87'
p689
ssS'_usr_local_lib_python2_7_dist-packages_django_contrib_contenttypes_forms'
p690
(dp691
g6
(dp692
g8
S'_usr_local_lib_python2_7_dist-packages_django_contrib_contenttypes_forms.html'
p693
sg10
S'/usr/local/lib/python2.7/dist-packages/django/contrib/contenttypes/forms'
p694
sg12
g13
(g14
g15
NtRp695
(dp696
g18
I1
sg19
I0
sg20
I38
sg21
I0
sg22
I0
sg23
I28
sg24
I0
sbssg25
S'\xea!\xe4\x98\x17H\x12W\x8ej\xf7\x02\xa67\xbf\x1f'
p697
ssS'_usr_local_lib_python2_7_dist-packages_debug_toolbar_models'
p698
(dp699
g6
(dp700
g8
S'_usr_local_lib_python2_7_dist-packages_debug_toolbar_models.html'
p701
sg10
S'/usr/local/lib/python2.7/dist-packages/debug_toolbar/models'
p702
sg12
g13
(g14
g15
NtRp703
(dp704
g18
I1
sg19
I0
sg20
I5
sg21
I0
sg22
I0
sg23
I1
sg24
I0
sbssg25
S'\xd3k\xeb\xed\xf2\xafw\xd04\xa1\xb6\xbb\xc4\x93\xe9~'
p705
ssS'_usr_local_lib_python2_7_dist-packages_django_contrib_auth_tokens'
p706
(dp707
g6
(dp708
g8
S'_usr_local_lib_python2_7_dist-packages_django_contrib_auth_tokens.html'
p709
sg10
S'/usr/local/lib/python2.7/dist-packages/django/contrib/auth/tokens'
p710
sg12
g13
(g14
g15
NtRp711
(dp712
g18
I1
sg19
I0
sg20
I34
sg21
I0
sg22
I0
sg23
I22
sg24
I0
sbssg25
S'\x835\x03\xf2\xc5\xc6\x97\x80%R\x92dm\xef\xba\xa5'
p713
ssS'_usr_local_lib_python2_7_dist-packages_django_contrib_messages_api'
p714
(dp715
g6
(dp716
g8
S'_usr_local_lib_python2_7_dist-packages_django_contrib_messages_api.html'
p717
sg10
S'/usr/local/lib/python2.7/dist-packages/django/contrib/messages/api'
p718
sg12
g13
(g14
g15
NtRp719
(dp720
g18
I1
sg19
I0
sg20
I37
sg21
I0
sg22
I0
sg23
I22
sg24
I0
sbssg25
S'\xec\x0f\xcf\xdc\xaf\x19\x7f]\x05RjO\x0et\x04\x8f'
p721
ssS'_usr_local_lib_python2_7_dist-packages_django_db_models_fields___init__'
p722
(dp723
g6
(dp724
g8
S'_usr_local_lib_python2_7_dist-packages_django_db_models_fields___init__.html'
p725
sg10
S'/usr/local/lib/python2.7/dist-packages/django/db/models/fields/__init__'
p726
sg12
g13
(g14
g15
NtRp727
(dp728
g18
I1
sg19
I0
sg20
I1134
sg21
I0
sg22
I0
sg23
I536
sg24
I0
sbssg25
S'F\xd1\xcfT\xa7Q\xbd\xee\x81\x02\x15}\x84\x14:\xc1'
p729
ssS'_usr_local_lib_python2_7_dist-packages_django_template_loader_tags'
p730
(dp731
g6
(dp732
g8
S'_usr_local_lib_python2_7_dist-packages_django_template_loader_tags.html'
p733
sg10
S'/usr/local/lib/python2.7/dist-packages/django/template/loader_tags'
p734
sg12
g13
(g14
g15
NtRp735
(dp736
g18
I1
sg19
I0
sg20
I153
sg21
I0
sg22
I0
sg23
I42
sg24
I0
sbssg25
S'BjO\xa8\xa7O\xe8XAj\xbf\x17\x89\xc1\xcc1'
p737
ssS'_usr_local_lib_python2_7_dist-packages_django_db_models_query_utils'
p738
(dp739
g6
(dp740
g8
S'_usr_local_lib_python2_7_dist-packages_django_db_models_query_utils.html'
p741
sg10
S'/usr/local/lib/python2.7/dist-packages/django/db/models/query_utils'
p742
sg12
g13
(g14
g15
NtRp743
(dp744
g18
I1
sg19
I0
sg20
I104
sg21
I0
sg22
I0
sg23
I65
sg24
I0
sbssg25
S'iq\xa0\x08\x86\xdaCn\xe6l\x85]6D\xab\xe9'
p745
ssS'_usr_local_lib_python2_7_dist-packages_django_contrib_auth_signals'
p746
(dp747
g6
(dp748
g8
S'_usr_local_lib_python2_7_dist-packages_django_contrib_auth_signals.html'
p749
sg10
S'/usr/local/lib/python2.7/dist-packages/django/contrib/auth/signals'
p750
sg12
g13
(g14
g15
NtRp751
(dp752
g18
I1
sg19
I0
sg20
I4
sg21
I0
sg22
I0
sg23
I0
sg24
I0
sbssg25
S'\x89\x9c\xaa;\xc3\xa0\x92\xe0\x14HX\x86\x17\\\xf6z'
p753
ssS'_usr_local_lib_python2_7_dist-packages_django_contrib_auth_middleware'
p754
(dp755
g6
(dp756
g8
S'_usr_local_lib_python2_7_dist-packages_django_contrib_auth_middleware.html'
p757
sg10
S'/usr/local/lib/python2.7/dist-packages/django/contrib/auth/middleware'
p758
sg12
g13
(g14
g15
NtRp759
(dp760
g18
I1
sg19
I0
sg20
I56
sg21
I0
sg22
I0
sg23
I33
sg24
I0
sbssg25
S"\xe8\x9d'\xbe:\xbaF\x0b1\xab\x0b\x9a\n\x10\xa6\x86"
p761
ssS'_usr_local_lib_python2_7_dist-packages_django_db_models_base'
p762
(dp763
g6
(dp764
g8
S'_usr_local_lib_python2_7_dist-packages_django_db_models_base.html'
p765
sg10
S'/usr/local/lib/python2.7/dist-packages/django/db/models/base'
p766
sg12
g13
(g14
g15
NtRp767
(dp768
g18
I1
sg19
I0
sg20
I732
sg21
I0
sg22
I0
sg23
I375
sg24
I0
sbssg25
S'\x84\xb9\xa9\x1938,"&\x87\x19O\xb2q\'A'
p769
ssS'apps_home_templatetags___init__'
p770
(dp771
g6
(dp772
g8
S'apps_home_templatetags___init__.html'
p773
sg10
S'apps/home/templatetags/__init__'
p774
sg12
g13
(g14
g15
NtRp775
(dp776
g18
I1
sg19
I0
sg20
I0
sg21
I0
sg22
I0
sg23
I0
sg24
I0
sbssg25
S'\xca\xf5\x9f\x7f\x88\xdfa\x831|T\x1d\xbc}\xa5v'
p777
ssS'_usr_local_lib_python2_7_dist-packages_django_core_management_commands_test'
p778
(dp779
g6
(dp780
g8
S'_usr_local_lib_python2_7_dist-packages_django_core_management_commands_test.html'
p781
sg10
S'/usr/local/lib/python2.7/dist-packages/django/core/management/commands/test'
p782
sg12
g13
(g14
g15
NtRp783
(dp784
g18
I1
sg19
I0
sg20
I46
sg21
I0
sg22
I0
sg23
I5
sg24
I0
sbssg25
S'\x96\xc7\xd3\xf4\xb2\x0c_\xf9\xb3\xc2S\r\x82\x84\x15\xa3'
p785
ssS'_usr_local_lib_python2_7_dist-packages_jsonview_decorators'
p786
(dp787
g6
(dp788
g8
S'_usr_local_lib_python2_7_dist-packages_jsonview_decorators.html'
p789
sg10
S'/usr/local/lib/python2.7/dist-packages/jsonview/decorators'
p790
sg12
g13
(g14
g15
NtRp791
(dp792
g18
I1
sg19
I0
sg20
I66
sg21
I0
sg22
I0
sg23
I42
sg24
I0
sbssg25
S'\x0b\xfb\xbb\xea\x12\xeb\xf4,0\xbc\x05y\x83\x81N}'
p793
ssS'_usr_local_lib_python2_7_dist-packages_django_views_decorators_http'
p794
(dp795
g6
(dp796
g8
S'_usr_local_lib_python2_7_dist-packages_django_views_decorators_http.html'
p797
sg10
S'/usr/local/lib/python2.7/dist-packages/django/views/decorators/http'
p798
sg12
g13
(g14
g15
NtRp799
(dp800
g18
I1
sg19
I0
sg20
I72
sg21
I0
sg22
I0
sg23
I49
sg24
I0
sbssg25
S'\x1eT\xac\xea\x16%\xc0o\xfe\xb3/Y\xcd\xd9\xdc\xf0'
p801
ssS'indiandelights___init__'
p802
(dp803
g6
(dp804
g8
S'indiandelights___init__.html'
p805
sg10
S'indiandelights/__init__'
p806
sg12
g13
(g14
g15
NtRp807
(dp808
g18
I1
sg19
I0
sg20
I0
sg21
I0
sg22
I0
sg23
I0
sg24
I0
sbssg25
S'\xca\xf5\x9f\x7f\x88\xdfa\x831|T\x1d\xbc}\xa5v'
p809
ssS'_usr_local_lib_python2_7_dist-packages_django_db_models_options'
p810
(dp811
g6
(dp812
g8
S'_usr_local_lib_python2_7_dist-packages_django_db_models_options.html'
p813
sg10
S'/usr/local/lib/python2.7/dist-packages/django/db/models/options'
p814
sg12
g13
(g14
g15
NtRp815
(dp816
g18
I1
sg19
I0
sg20
I373
sg21
I0
sg22
I0
sg23
I95
sg24
I0
sbssg25
S'\xad\x94&\x88\xd4\xea\x08\x80\xe0\r\x9b\xf8l\xc08\xd2'
p817
ssS'_usr_local_lib_python2_7_dist-packages_django_utils_deconstruct'
p818
(dp819
g6
(dp820
g8
S'_usr_local_lib_python2_7_dist-packages_django_utils_deconstruct.html'
p821
sg10
S'/usr/local/lib/python2.7/dist-packages/django/utils/deconstruct'
p822
sg12
g13
(g14
g15
NtRp823
(dp824
g18
I1
sg19
I0
sg20
I15
sg21
I0
sg22
I0
sg23
I2
sg24
I0
sbssg25
S'1\xb6o\xe9\xf7\xb5\xe9\xa02Nq\xb0\xc1\xa4\x83\xa9'
p825
ssS'_usr_local_lib_python2_7_dist-packages_django_core_urlresolvers'
p826
(dp827
g6
(dp828
g8
S'_usr_local_lib_python2_7_dist-packages_django_core_urlresolvers.html'
p829
sg10
S'/usr/local/lib/python2.7/dist-packages/django/core/urlresolvers'
p830
sg12
g13
(g14
g15
NtRp831
(dp832
g18
I1
sg19
I0
sg20
I375
sg21
I0
sg22
I0
sg23
I99
sg24
I0
sbssg25
S'\x08\xd7T\x14 \x93\xef\xa7&\xab\x06\xe5\xa0\xca\xb4m'
p833
ssS'_usr_local_lib_python2_7_dist-packages_debug_toolbar_panels_sql_forms'
p834
(dp835
g6
(dp836
g8
S'_usr_local_lib_python2_7_dist-packages_debug_toolbar_panels_sql_forms.html'
p837
sg10
S'/usr/local/lib/python2.7/dist-packages/debug_toolbar/panels/sql/forms'
p838
sg12
g13
(g14
g15
NtRp839
(dp840
g18
I1
sg19
I0
sg20
I55
sg21
I0
sg22
I0
sg23
I29
sg24
I0
sbssg25
S'v\xedq\xe6\xe3n\xf0\x06\xf3I\xb5d\xc87Q`'
p841
ssS'_usr_local_lib_python2_7_dist-packages_django_core___init__'
p842
(dp843
g6
(dp844
g8
S'_usr_local_lib_python2_7_dist-packages_django_core___init__.html'
p845
sg10
S'/usr/local/lib/python2.7/dist-packages/django/core/__init__'
p846
sg12
g13
(g14
g15
NtRp847
(dp848
g18
I1
sg19
I0
sg20
I0
sg21
I0
sg22
I0
sg23
I0
sg24
I0
sbssg25
S'\xca\xf5\x9f\x7f\x88\xdfa\x831|T\x1d\xbc}\xa5v'
p849
ssS'_usr_local_lib_python2_7_dist-packages_django_middleware_csrf'
p850
(dp851
g6
(dp852
g8
S'_usr_local_lib_python2_7_dist-packages_django_middleware_csrf.html'
p853
sg10
S'/usr/local/lib/python2.7/dist-packages/django/middleware/csrf'
p854
sg12
g13
(g14
g15
NtRp855
(dp856
g18
I1
sg19
I0
sg20
I81
sg21
I0
sg22
I0
sg23
I35
sg24
I0
sbssg25
S'\x90\x95\xc0\xfc\x06;\x0f\xd4\x03\xdd\x01\xc1\xd9s\x03}'
p857
ssS'_usr_local_lib_python2_7_dist-packages_debug_toolbar_panels_logging'
p858
(dp859
g6
(dp860
g8
S'_usr_local_lib_python2_7_dist-packages_debug_toolbar_panels_logging.html'
p861
sg10
S'/usr/local/lib/python2.7/dist-packages/debug_toolbar/panels/logging'
p862
sg12
g13
(g14
g15
NtRp863
(dp864
g18
I1
sg19
I0
sg20
I49
sg21
I0
sg22
I0
sg23
I15
sg24
I0
sbssg25
S'\xab\xb4] =\xc4\xdf\x1c\t^\t\xb5V\xdf\xfb\x98'
p865
ssS'apps_home_migrations_0002_homepage_is_config'
p866
(dp867
g6
(dp868
g8
S'apps_home_migrations_0002_homepage_is_config.html'
p869
sg10
S'apps/home/migrations/0002_homepage_is_config'
p870
sg12
g13
(g14
g15
NtRp871
(dp872
g18
I1
sg19
I0
sg20
I5
sg21
I0
sg22
I0
sg23
I0
sg24
I0
sbssg25
S'\x98 \xd7U\xd9\xcd\xcbv\xf8\x9ed\xcbw\x89\x85B'
p873
ssS'_usr_local_lib_python2_7_dist-packages_django_contrib_sites_shortcuts'
p874
(dp875
g6
(dp876
g8
S'_usr_local_lib_python2_7_dist-packages_django_contrib_sites_shortcuts.html'
p877
sg10
S'/usr/local/lib/python2.7/dist-packages/django/contrib/sites/shortcuts'
p878
sg12
g13
(g14
g15
NtRp879
(dp880
g18
I1
sg19
I0
sg20
I8
sg21
I0
sg22
I0
sg23
I5
sg24
I0
sbssg25
S'\xde\xd7\x16\xc7\xd5m\xe1\xd4\xa1(}\xe3O\xe4\xe1\x13'
p881
ssS'_usr_local_lib_python2_7_dist-packages_debug_toolbar_management___init__'
p882
(dp883
g6
(dp884
g8
S'_usr_local_lib_python2_7_dist-packages_debug_toolbar_management___init__.html'
p885
sg10
S'/usr/local/lib/python2.7/dist-packages/debug_toolbar/management/__init__'
p886
sg12
g13
(g14
g15
NtRp887
(dp888
g18
I1
sg19
I0
sg20
I0
sg21
I0
sg22
I0
sg23
I0
sg24
I0
sbssg25
S'\xca\xf5\x9f\x7f\x88\xdfa\x831|T\x1d\xbc}\xa5v'
p889
ssS'_usr_local_lib_python2_7_dist-packages_django_contrib_staticfiles_apps'
p890
(dp891
g6
(dp892
g8
S'_usr_local_lib_python2_7_dist-packages_django_contrib_staticfiles_apps.html'
p893
sg10
S'/usr/local/lib/python2.7/dist-packages/django/contrib/staticfiles/apps'
p894
sg12
g13
(g14
g15
NtRp895
(dp896
g18
I1
sg19
I0
sg20
I5
sg21
I0
sg22
I0
sg23
I0
sg24
I0
sbssg25
S"\xe0\xa6G+$\x97'\xf2\x1a\xd3h\xe0\xc5l\xc3*"
p897
ssS'_usr_local_lib_python2_7_dist-packages_django_http___init__'
p898
(dp899
g6
(dp900
g8
S'_usr_local_lib_python2_7_dist-packages_django_http___init__.html'
p901
sg10
S'/usr/local/lib/python2.7/dist-packages/django/http/__init__'
p902
sg12
g13
(g14
g15
NtRp903
(dp904
g18
I1
sg19
I0
sg20
I5
sg21
I0
sg22
I0
sg23
I0
sg24
I0
sbssg25
S'\xb8\xf1\xd8\xe0\x9f\x0b\x10\xd2eE\xe7\x08\x92\x97\x12\xac'
p905
ssS'_usr_local_lib_python2_7_dist-packages_django_template_defaultfilters'
p906
(dp907
g6
(dp908
g8
S'_usr_local_lib_python2_7_dist-packages_django_template_defaultfilters.html'
p909
sg10
S'/usr/local/lib/python2.7/dist-packages/django/template/defaultfilters'
p910
sg12
g13
(g14
g15
NtRp911
(dp912
g18
I1
sg19
I0
sg20
I459
sg21
I0
sg22
I0
sg23
I325
sg24
I0
sbssg25
S'\xd6a:,\xa2\xea\xdf\x91<?\x19]e\xaa\x9ba'
p913
ssS'indiandelights_settings_base'
p914
(dp915
g6
(dp916
g8
S'indiandelights_settings_base.html'
p917
sg10
S'indiandelights/settings/base'
p918
sg12
g13
(g14
g15
NtRp919
(dp920
g18
I1
sg19
I0
sg20
I27
sg21
I0
sg22
I0
sg23
I0
sg24
I0
sbssg25
S'6\xae[O\x9ft\x8dI\x9b\x836\xb9[\xca\x87\x81'
p921
ssS'_usr_local_lib_python2_7_dist-packages_django_db_migrations_autodetector'
p922
(dp923
g6
(dp924
g8
S'_usr_local_lib_python2_7_dist-packages_django_db_migrations_autodetector.html'
p925
sg10
S'/usr/local/lib/python2.7/dist-packages/django/db/migrations/autodetector'
p926
sg12
g13
(g14
g15
NtRp927
(dp928
g18
I1
sg19
I0
sg20
I505
sg21
I0
sg22
I0
sg23
I465
sg24
I0
sbssg25
S'\x9a\teg\xce\x0cP`\xe2\x9c\x8e\xdayQ@\xed'
p929
ssS'_usr_local_lib_python2_7_dist-packages_django_core_cache_backends_base'
p930
(dp931
g6
(dp932
g8
S'_usr_local_lib_python2_7_dist-packages_django_core_cache_backends_base.html'
p933
sg10
S'/usr/local/lib/python2.7/dist-packages/django/core/cache/backends/base'
p934
sg12
g13
(g14
g15
NtRp935
(dp936
g18
I1
sg19
I0
sg20
I108
sg21
I0
sg22
I0
sg23
I49
sg24
I0
sbssg25
S'\xd0</\x80\xc9\x89\x9e\xdc\xbb\xf3\xcbw\x95K#-'
p937
ssS'_usr_local_lib_python2_7_dist-packages_django_utils_cache'
p938
(dp939
g6
(dp940
g8
S'_usr_local_lib_python2_7_dist-packages_django_utils_cache.html'
p941
sg10
S'/usr/local/lib/python2.7/dist-packages/django/utils/cache'
p942
sg12
g13
(g14
g15
NtRp943
(dp944
g18
I1
sg19
I0
sg20
I133
sg21
I0
sg22
I0
sg23
I103
sg24
I0
sbssg25
S'\x95W\x95\x1d\xb0\xc9y\xad\x18T\x82\xf9\x817\xc3~'
p945
ssS'_usr_local_lib_python2_7_dist-packages_debug_toolbar_panels_settings'
p946
(dp947
g6
(dp948
g8
S'_usr_local_lib_python2_7_dist-packages_debug_toolbar_panels_settings.html'
p949
sg10
S'/usr/local/lib/python2.7/dist-packages/debug_toolbar/panels/settings'
p950
sg12
g13
(g14
g15
NtRp951
(dp952
g18
I1
sg19
I0
sg20
I16
sg21
I0
sg22
I0
sg23
I4
sg24
I0
sbssg25
S'\xda\xf28\xcf\n\xac\rws\xb2\x9a,s\xa4\x8eW'
p953
ssS'_usr_local_lib_python2_7_dist-packages_django_contrib_admin_checks'
p954
(dp955
g6
(dp956
g8
S'_usr_local_lib_python2_7_dist-packages_django_contrib_admin_checks.html'
p957
sg10
S'/usr/local/lib/python2.7/dist-packages/django/contrib/admin/checks'
p958
sg12
g13
(g14
g15
NtRp959
(dp960
g18
I1
sg19
I0
sg20
I399
sg21
I0
sg22
I0
sg23
I235
sg24
I0
sbssg25
S'\x9aT@UJ\x8b \x92\xae=\x99\xaf\x05\x1e\x82\xd4'
p961
ssS'_usr_local_lib_python2_7_dist-packages_django_template_smartif'
p962
(dp963
g6
(dp964
g8
S'_usr_local_lib_python2_7_dist-packages_django_template_smartif.html'
p965
sg10
S'/usr/local/lib/python2.7/dist-packages/django/template/smartif'
p966
sg12
g13
(g14
g15
NtRp967
(dp968
g18
I1
sg19
I0
sg20
I104
sg21
I0
sg22
I0
sg23
I23
sg24
I0
sbssg25
S"t$\xd4\xbe\xcaYV'{\x03\x1d\x15\x9c\x0e\x86\x95"
p969
ssS'indiandelights_settings___init__'
p970
(dp971
g6
(dp972
g8
S'indiandelights_settings___init__.html'
p973
sg10
S'indiandelights/settings/__init__'
p974
sg12
g13
(g14
g15
NtRp975
(dp976
g18
I1
sg19
I0
sg20
I1
sg21
I0
sg22
I0
sg23
I0
sg24
I0
sbssg25
S'\x94\x93\x8d\xf6\xf2\xb6\xd2\xf8\xacH\\2\x98\r\x9c\x07'
p977
ssS'_usr_local_lib_python2_7_dist-packages_django_core_files___init__'
p978
(dp979
g6
(dp980
g8
S'_usr_local_lib_python2_7_dist-packages_django_core_files___init__.html'
p981
sg10
S'/usr/local/lib/python2.7/dist-packages/django/core/files/__init__'
p982
sg12
g13
(g14
g15
NtRp983
(dp984
g18
I1
sg19
I0
sg20
I2
sg21
I0
sg22
I0
sg23
I0
sg24
I0
sbssg25
S'G\xfbz6gu\xc3\x13E\x9f3\xbb\xe0d\xe3`'
p985
ssS'_usr_local_lib_python2_7_dist-packages_django_contrib_contenttypes_fields'
p986
(dp987
g6
(dp988
g8
S'_usr_local_lib_python2_7_dist-packages_django_contrib_contenttypes_fields.html'
p989
sg10
S'/usr/local/lib/python2.7/dist-packages/django/contrib/contenttypes/fields'
p990
sg12
g13
(g14
g15
NtRp991
(dp992
g18
I1
sg19
I0
sg20
I280
sg21
I0
sg22
I0
sg23
I226
sg24
I0
sbssg25
S'Z_2\xbe\xa2\xc8H\x90I}\x7fKx\xf9\x17~'
p993
ssS'_usr_local_lib_python2_7_dist-packages_django_db_backends_sqlite3_schema'
p994
(dp995
g6
(dp996
g8
S'_usr_local_lib_python2_7_dist-packages_django_db_backends_sqlite3_schema.html'
p997
sg10
S'/usr/local/lib/python2.7/dist-packages/django/db/backends/sqlite3/schema'
p998
sg12
g13
(g14
g15
NtRp999
(dp1000
g18
I1
sg19
I0
sg20
I106
sg21
I0
sg22
I0
sg23
I46
sg24
I0
sbssg25
S'\x91\x00!q\x96\xe4\xe0\x99\xd1\x9d\xa6i\x8a=\x86!'
p1001
ssS'_usr_local_lib_python2_7_dist-packages_django_db_models_aggregates'
p1002
(dp1003
g6
(dp1004
g8
S'_usr_local_lib_python2_7_dist-packages_django_db_models_aggregates.html'
p1005
sg10
S'/usr/local/lib/python2.7/dist-packages/django/db/models/aggregates'
p1006
sg12
g13
(g14
g15
NtRp1007
(dp1008
g18
I1
sg19
I0
sg20
I33
sg21
I0
sg22
I0
sg23
I11
sg24
I0
sbssg25
S'\xaf\x92\x0fy\x98wh\x16``\x1f\xb1\xb4\xaaG\xb4'
p1009
ssS'_usr_local_lib_python2_7_dist-packages_django_middleware___init__'
p1010
(dp1011
g6
(dp1012
g8
S'_usr_local_lib_python2_7_dist-packages_django_middleware___init__.html'
p1013
sg10
S'/usr/local/lib/python2.7/dist-packages/django/middleware/__init__'
p1014
sg12
g13
(g14
g15
NtRp1015
(dp1016
g18
I1
sg19
I0
sg20
I0
sg21
I0
sg22
I0
sg23
I0
sg24
I0
sbssg25
S'\xca\xf5\x9f\x7f\x88\xdfa\x831|T\x1d\xbc}\xa5v'
p1017
ssS'_usr_local_lib_python2_7_dist-packages_django_contrib_sessions_serializers'
p1018
(dp1019
g6
(dp1020
g8
S'_usr_local_lib_python2_7_dist-packages_django_contrib_sessions_serializers.html'
p1021
sg10
S'/usr/local/lib/python2.7/dist-packages/django/contrib/sessions/serializers'
p1022
sg12
g13
(g14
g15
NtRp1023
(dp1024
g18
I1
sg19
I0
sg20
I11
sg21
I0
sg22
I0
sg23
I4
sg24
I0
sbssg25
S'\xd1\r\xe2\x0e_2\xa4;r\xa8z\x90a\xba\xc2\xb4'
p1025
ssS'_usr_local_lib_python2_7_dist-packages_django_apps_registry'
p1026
(dp1027
g6
(dp1028
g8
S'_usr_local_lib_python2_7_dist-packages_django_apps_registry.html'
p1029
sg10
S'/usr/local/lib/python2.7/dist-packages/django/apps/registry'
p1030
sg12
g13
(g14
g15
NtRp1031
(dp1032
g18
I1
sg19
I0
sg20
I181
sg21
I0
sg22
I0
sg23
I73
sg24
I0
sbssg25
S'\xfcF\xe9\x98\xb3\xb3w\x9a\xa9J\xd1\xa5\xf8a\x83\x08'
p1033
ssS'_usr_local_lib_python2_7_dist-packages_django_core_exceptions'
p1034
(dp1035
g6
(dp1036
g8
S'_usr_local_lib_python2_7_dist-packages_django_core_exceptions.html'
p1037
sg10
S'/usr/local/lib/python2.7/dist-packages/django/core/exceptions'
p1038
sg12
g13
(g14
g15
NtRp1039
(dp1040
g18
I1
sg19
I0
sg20
I85
sg21
I0
sg22
I0
sg23
I45
sg24
I0
sbssg25
S"\xa3\xda`\xbe\xa4\xb4U\xc9\x8d\xb7\x84'\xe37!\xc4"
p1041
ssS'_usr_local_lib_python2_7_dist-packages_imagekit_lib'
p1042
(dp1043
g6
(dp1044
g8
S'_usr_local_lib_python2_7_dist-packages_imagekit_lib.html'
p1045
sg10
S'/usr/local/lib/python2.7/dist-packages/imagekit/lib'
p1046
sg12
g13
(g14
g15
NtRp1047
(dp1048
g18
I1
sg19
I0
sg20
I33
sg21
I0
sg22
I0
sg23
I24
sg24
I0
sbssg25
S'R\xe7\xfe\xa1\xcd\xcd\x18\xc9\xb5S\xd3\xd5\x04\x17\xb0\xd7'
p1049
ssS'apps_product_migrations___init__'
p1050
(dp1051
g6
(dp1052
g8
S'apps_product_migrations___init__.html'
p1053
sg10
S'apps/product/migrations/__init__'
p1054
sg12
g13
(g14
g15
NtRp1055
(dp1056
g18
I1
sg19
I0
sg20
I0
sg21
I0
sg22
I0
sg23
I0
sg24
I0
sbssg25
S'\xca\xf5\x9f\x7f\x88\xdfa\x831|T\x1d\xbc}\xa5v'
p1057
ssS'_usr_local_lib_python2_7_dist-packages_imagekit_cachefiles_backends'
p1058
(dp1059
g6
(dp1060
g8
S'_usr_local_lib_python2_7_dist-packages_imagekit_cachefiles_backends.html'
p1061
sg10
S'/usr/local/lib/python2.7/dist-packages/imagekit/cachefiles/backends'
p1062
sg12
g13
(g14
g15
NtRp1063
(dp1064
g18
I1
sg19
I0
sg20
I103
sg21
I0
sg22
I0
sg23
I29
sg24
I0
sbssg25
S'\xb7R\x84(\xc9>\x04\xb8\xbd\x9f\xc3\xd6\x99\xb8>D'
p1065
ssS'_usr_local_lib_python2_7_dist-packages_django_contrib_sessions_management___init__'
p1066
(dp1067
g6
(dp1068
g8
S'_usr_local_lib_python2_7_dist-packages_django_contrib_sessions_management___init__.html'
p1069
sg10
S'/usr/local/lib/python2.7/dist-packages/django/contrib/sessions/management/__init__'
p1070
sg12
g13
(g14
g15
NtRp1071
(dp1072
g18
I1
sg19
I0
sg20
I0
sg21
I0
sg22
I0
sg23
I0
sg24
I0
sbssg25
S'\xca\xf5\x9f\x7f\x88\xdfa\x831|T\x1d\xbc}\xa5v'
p1073
ssS'_usr_local_lib_python2_7_dist-packages_django_db_backends_sqlite3_base'
p1074
(dp1075
g6
(dp1076
g8
S'_usr_local_lib_python2_7_dist-packages_django_db_backends_sqlite3_base.html'
p1077
sg10
S'/usr/local/lib/python2.7/dist-packages/django/db/backends/sqlite3/base'
p1078
sg12
g13
(g14
g15
NtRp1079
(dp1080
g18
I1
sg19
I0
sg20
I322
sg21
I0
sg22
I0
sg23
I145
sg24
I0
sbssg25
S'\xf6\xbc\x12\x13dD\xd6\xe0\x93\xceLfU\xcck\xc2'
p1081
ssS'_usr_local_lib_python2_7_dist-packages_django_core_files_uploadhandler'
p1082
(dp1083
g6
(dp1084
g8
S'_usr_local_lib_python2_7_dist-packages_django_core_files_uploadhandler.html'
p1085
sg10
S'/usr/local/lib/python2.7/dist-packages/django/core/files/uploadhandler'
p1086
sg12
g13
(g14
g15
NtRp1087
(dp1088
g18
I1
sg19
I0
sg20
I78
sg21
I0
sg22
I0
sg23
I42
sg24
I0
sbssg25
S'l(p_\x7fk\x90\x0cR\xbe\xc0\xf8\x1d6I\x94'
p1089
ssS'_usr_local_lib_python2_7_dist-packages_django_core_cache_backends___init__'
p1090
(dp1091
g6
(dp1092
g8
S'_usr_local_lib_python2_7_dist-packages_django_core_cache_backends___init__.html'
p1093
sg10
S'/usr/local/lib/python2.7/dist-packages/django/core/cache/backends/__init__'
p1094
sg12
g13
(g14
g15
NtRp1095
(dp1096
g18
I1
sg19
I0
sg20
I0
sg21
I0
sg22
I0
sg23
I0
sg24
I0
sbssg25
S'\xca\xf5\x9f\x7f\x88\xdfa\x831|T\x1d\xbc}\xa5v'
p1097
ssS'_usr_local_lib_python2_7_dist-packages_django_template_base'
p1098
(dp1099
g6
(dp1100
g8
S'_usr_local_lib_python2_7_dist-packages_django_template_base.html'
p1101
sg10
S'/usr/local/lib/python2.7/dist-packages/django/template/base'
p1102
sg12
g13
(g14
g15
NtRp1103
(dp1104
g18
I1
sg19
I0
sg20
I786
sg21
I0
sg22
I0
sg23
I282
sg24
I0
sbssg25
S'_\xd2uq\x16g\x1c\'\xf1\xb9Z\x9d\xb2"\x89\x94'
p1105
ssS'_usr_local_lib_python2_7_dist-packages_django_core_management_commands___init__'
p1106
(dp1107
g6
(dp1108
g8
S'_usr_local_lib_python2_7_dist-packages_django_core_management_commands___init__.html'
p1109
sg10
S'/usr/local/lib/python2.7/dist-packages/django/core/management/commands/__init__'
p1110
sg12
g13
(g14
g15
NtRp1111
(dp1112
g18
I1
sg19
I0
sg20
I0
sg21
I0
sg22
I0
sg23
I0
sg24
I0
sbssg25
S'\xca\xf5\x9f\x7f\x88\xdfa\x831|T\x1d\xbc}\xa5v'
p1113
ssS'_usr_local_lib_python2_7_dist-packages_sqlparse_keywords'
p1114
(dp1115
g6
(dp1116
g8
S'_usr_local_lib_python2_7_dist-packages_sqlparse_keywords.html'
p1117
sg10
S'/usr/local/lib/python2.7/dist-packages/sqlparse/keywords'
p1118
sg12
g13
(g14
g15
NtRp1119
(dp1120
g18
I1
sg19
I0
sg20
I3
sg21
I0
sg22
I0
sg23
I0
sg24
I0
sbssg25
S'\xe8\x92OA:\x9d\x1c\tX\x85\x96w\x9cS\xbc\xaf'
p1121
ssS'_usr_local_lib_python2_7_dist-packages_django_conf_global_settings'
p1122
(dp1123
g6
(dp1124
g8
S'_usr_local_lib_python2_7_dist-packages_django_conf_global_settings.html'
p1125
sg10
S'/usr/local/lib/python2.7/dist-packages/django/conf/global_settings'
p1126
sg12
g13
(g14
g15
NtRp1127
(dp1128
g18
I1
sg19
I0
sg20
I130
sg21
I0
sg22
I0
sg23
I0
sg24
I0
sbssg25
S'M\x9e\x92\xfe\x88\xe8sP\x0e\x98\xea\xc7Bkq\x7f'
p1129
ssS'_usr_local_lib_python2_7_dist-packages_debug_toolbar_panels_sql_tracking'
p1130
(dp1131
g6
(dp1132
g8
S'_usr_local_lib_python2_7_dist-packages_debug_toolbar_panels_sql_tracking.html'
p1133
sg10
S'/usr/local/lib/python2.7/dist-packages/debug_toolbar/panels/sql/tracking'
p1134
sg12
g13
(g14
g15
NtRp1135
(dp1136
g18
I1
sg19
I0
sg20
I97
sg21
I0
sg22
I0
sg23
I62
sg24
I0
sbssg25
S'\x0c\xa4;\x9ex\x0c\x15\x1ca0;\x13\\\\P\xd3'
p1137
ssS'_usr_local_lib_python2_7_dist-packages_sqlparse_tokens'
p1138
(dp1139
g6
(dp1140
g8
S'_usr_local_lib_python2_7_dist-packages_sqlparse_tokens.html'
p1141
sg10
S'/usr/local/lib/python2.7/dist-packages/sqlparse/tokens'
p1142
sg12
g13
(g14
g15
NtRp1143
(dp1144
g18
I1
sg19
I0
sg20
I52
sg21
I0
sg22
I0
sg23
I11
sg24
I0
sbssg25
S'\xf8\xd8\xe7\xde\xe1\x1c\xf6j\x8e\x87T#]\x8a\xd5\xa1'
p1145
ssS'_usr_local_lib_python2_7_dist-packages_django_core_files_base'
p1146
(dp1147
g6
(dp1148
g8
S'_usr_local_lib_python2_7_dist-packages_django_core_files_base.html'
p1149
sg10
S'/usr/local/lib/python2.7/dist-packages/django/core/files/base'
p1150
sg12
g13
(g14
g15
NtRp1151
(dp1152
g18
I1
sg19
I0
sg20
I106
sg21
I0
sg22
I0
sg23
I49
sg24
I0
sbssg25
S')\xfdC\xa9\xdb\x7f\x8b\x8be{\xaf\x11K\x97\x08\xb9'
p1153
ssS'_usr_local_lib_python2_7_dist-packages_django_forms_forms'
p1154
(dp1155
g6
(dp1156
g8
S'_usr_local_lib_python2_7_dist-packages_django_forms_forms.html'
p1157
sg10
S'/usr/local/lib/python2.7/dist-packages/django/forms/forms'
p1158
sg12
g13
(g14
g15
NtRp1159
(dp1160
g18
I1
sg19
I0
sg20
I325
sg21
I0
sg22
I0
sg23
I240
sg24
I0
sbssg25
S'#X\x8f\x1bdoW\xef!l7y\x83\xbd|\x00'
p1161
ssS'_usr_local_lib_python2_7_dist-packages_sqlparse_engine___init__'
p1162
(dp1163
g6
(dp1164
g8
S'_usr_local_lib_python2_7_dist-packages_sqlparse_engine___init__.html'
p1165
sg10
S'/usr/local/lib/python2.7/dist-packages/sqlparse/engine/__init__'
p1166
sg12
g13
(g14
g15
NtRp1167
(dp1168
g18
I1
sg19
I0
sg20
I54
sg21
I0
sg22
I0
sg23
I43
sg24
I0
sbssg25
S'{?t|%\x88\x95Xx\x16\x81\x9a\xe0^{\x06'
p1169
ssS'_usr_local_lib_python2_7_dist-packages_django_contrib_admin_decorators'
p1170
(dp1171
g6
(dp1172
g8
S'_usr_local_lib_python2_7_dist-packages_django_contrib_admin_decorators.html'
p1173
sg10
S'/usr/local/lib/python2.7/dist-packages/django/contrib/admin/decorators'
p1174
sg12
g13
(g14
g15
NtRp1175
(dp1176
g18
I1
sg19
I0
sg20
I12
sg21
I0
sg22
I0
sg23
I11
sg24
I0
sbssg25
S']\xe7^2}\xff\xf9\x13R\x9eeQ\xba8\xdeV'
p1177
ssS'_usr_local_lib_python2_7_dist-packages_django_utils_translation___init__'
p1178
(dp1179
g6
(dp1180
g8
S'_usr_local_lib_python2_7_dist-packages_django_utils_translation___init__.html'
p1181
sg10
S'/usr/local/lib/python2.7/dist-packages/django/utils/translation/__init__'
p1182
sg12
g13
(g14
g15
NtRp1183
(dp1184
g18
I1
sg19
I0
sg20
I115
sg21
I0
sg22
I0
sg23
I52
sg24
I0
sbssg25
S'u\xa5j_\xa4\x1d\xbc\x1f\xcany.7|2>'
p1185
ssS'_usr_local_lib_python2_7_dist-packages_django_utils_safestring'
p1186
(dp1187
g6
(dp1188
g8
S'_usr_local_lib_python2_7_dist-packages_django_utils_safestring.html'
p1189
sg10
S'/usr/local/lib/python2.7/dist-packages/django/utils/safestring'
p1190
sg12
g13
(g14
g15
NtRp1191
(dp1192
g18
I1
sg19
I0
sg20
I63
sg21
I0
sg22
I0
sg23
I28
sg24
I0
sbssg25
S'\xd3\xe7\x9a\x83\xae\x10\x15\xe7/\x82kz\xd3\xeaTp'
p1193
ssS'_usr_local_lib_python2_7_dist-packages_django_http_utils'
p1194
(dp1195
g6
(dp1196
g8
S'_usr_local_lib_python2_7_dist-packages_django_http_utils.html'
p1197
sg10
S'/usr/local/lib/python2.7/dist-packages/django/http/utils'
p1198
sg12
g13
(g14
g15
NtRp1199
(dp1200
g18
I1
sg19
I0
sg20
I15
sg21
I0
sg22
I0
sg23
I8
sg24
I0
sbssg25
S'P\xb8\xbc\xa4b\xb88lJ\x7fP\xe8\xedME\xd1'
p1201
ssS'_usr_local_lib_python2_7_dist-packages_pilkit___init__'
p1202
(dp1203
g6
(dp1204
g8
S'_usr_local_lib_python2_7_dist-packages_pilkit___init__.html'
p1205
sg10
S'/usr/local/lib/python2.7/dist-packages/pilkit/__init__'
p1206
sg12
g13
(g14
g15
NtRp1207
(dp1208
g18
I1
sg19
I0
sg20
I1
sg21
I0
sg22
I0
sg23
I0
sg24
I0
sbssg25
S'b\x8b\x08\x96\x06\xae\x81\xa6\xf6D\xce\x9f\xd7\xfad5'
p1209
ssS'_usr_local_lib_python2_7_dist-packages_debug_toolbar_panels_redirects'
p1210
(dp1211
g6
(dp1212
g8
S'_usr_local_lib_python2_7_dist-packages_debug_toolbar_panels_redirects.html'
p1213
sg10
S'/usr/local/lib/python2.7/dist-packages/debug_toolbar/panels/redirects'
p1214
sg12
g13
(g14
g15
NtRp1215
(dp1216
g18
I1
sg19
I0
sg20
I22
sg21
I0
sg22
I0
sg23
I13
sg24
I0
sbssg25
S"\xcd\x93\x93\x91u\xbd\xe9\xfc\x12\xd3\x83@'F\xd7\xab"
p1217
ssS'_usr_local_lib_python2_7_dist-packages_django_utils_functional'
p1218
(dp1219
g6
(dp1220
g8
S'_usr_local_lib_python2_7_dist-packages_django_utils_functional.html'
p1221
sg10
S'/usr/local/lib/python2.7/dist-packages/django/utils/functional'
p1222
sg12
g13
(g14
g15
NtRp1223
(dp1224
g18
I1
sg19
I0
sg20
I232
sg21
I0
sg22
I0
sg23
I101
sg24
I0
sbssg25
S'5u\xad\x12\xbd\xe8\x10\x95\xf5\xf3m\x95/\xb1\x90['
p1225
ssS'_usr_local_lib_python2_7_dist-packages_django_contrib_admin_templatetags___init__'
p1226
(dp1227
g6
(dp1228
g8
S'_usr_local_lib_python2_7_dist-packages_django_contrib_admin_templatetags___init__.html'
p1229
sg10
S'/usr/local/lib/python2.7/dist-packages/django/contrib/admin/templatetags/__init__'
p1230
sg12
g13
(g14
g15
NtRp1231
(dp1232
g18
I1
sg19
I0
sg20
I0
sg21
I0
sg22
I0
sg23
I0
sg24
I0
sbssg25
S'\xca\xf5\x9f\x7f\x88\xdfa\x831|T\x1d\xbc}\xa5v'
p1233
ssS'_usr_local_lib_python2_7_dist-packages_PIL_ImageColor'
p1234
(dp1235
g6
(dp1236
g8
S'_usr_local_lib_python2_7_dist-packages_PIL_ImageColor.html'
p1237
sg10
S'/usr/local/lib/python2.7/dist-packages/PIL/ImageColor'
p1238
sg12
g13
(g14
g15
NtRp1239
(dp1240
g18
I1
sg19
I0
sg20
I49
sg21
I0
sg22
I0
sg23
I44
sg24
I0
sbssg25
S'\x94\xed\x18\xd89)\x0feXcR\xf9\xf8?e,'
p1241
ssS'_usr_local_lib_python2_7_dist-packages_debug_toolbar_apps'
p1242
(dp1243
g6
(dp1244
g8
S'_usr_local_lib_python2_7_dist-packages_debug_toolbar_apps.html'
p1245
sg10
S'/usr/local/lib/python2.7/dist-packages/debug_toolbar/apps'
p1246
sg12
g13
(g14
g15
NtRp1247
(dp1248
g18
I1
sg19
I0
sg20
I11
sg21
I0
sg22
I0
sg23
I0
sg24
I0
sbssg25
S'2\x16";#\x03\x82}\xc1\xf6c1\x9fC\xe9\x0b'
p1249
ssS'_usr_local_lib_python2_7_dist-packages_django_db_backends_sqlite3_creation'
p1250
(dp1251
g6
(dp1252
g8
S'_usr_local_lib_python2_7_dist-packages_django_db_backends_sqlite3_creation.html'
p1253
sg10
S'/usr/local/lib/python2.7/dist-packages/django/db/backends/sqlite3/creation'
p1254
sg12
g13
(g14
g15
NtRp1255
(dp1256
g18
I1
sg19
I0
sg20
I42
sg21
I0
sg22
I0
sg23
I17
sg24
I0
sbssg25
S'\x14BZ\xcb\xda\xb9\x1a.\xcaF\x9d)\xad\x8d\xa0\xfc'
p1257
ssS'_usr_local_lib_python2_7_dist-packages_django_pickling'
p1258
(dp1259
g6
(dp1260
g8
S'_usr_local_lib_python2_7_dist-packages_django_pickling.html'
p1261
sg10
S'/usr/local/lib/python2.7/dist-packages/django_pickling'
p1262
sg12
g13
(g14
g15
NtRp1263
(dp1264
g18
I1
sg19
I0
sg20
I25
sg21
I0
sg22
I0
sg23
I14
sg24
I0
sbssg25
S'Q\xc3m\x95\xcfu0\x06\x83\xe9v\xc9\xfc\xb9Y\xc0'
p1265
ssS'_usr_local_lib_python2_7_dist-packages_django_core_management_commands_migrate'
p1266
(dp1267
g6
(dp1268
g8
S'_usr_local_lib_python2_7_dist-packages_django_core_management_commands_migrate.html'
p1269
sg10
S'/usr/local/lib/python2.7/dist-packages/django/core/management/commands/migrate'
p1270
sg12
g13
(g14
g15
NtRp1271
(dp1272
g18
I1
sg19
I0
sg20
I213
sg21
I0
sg22
I0
sg23
I109
sg24
I0
sbssg25
S'\xc0\xf6J\xfe6\xc9\xbc\xb9(\x06\x98\xa30.BT'
p1273
ssS'_usr_local_lib_python2_7_dist-packages_debug_toolbar_panels_staticfiles'
p1274
(dp1275
g6
(dp1276
g8
S'_usr_local_lib_python2_7_dist-packages_debug_toolbar_panels_staticfiles.html'
p1277
sg10
S'/usr/local/lib/python2.7/dist-packages/debug_toolbar/panels/staticfiles'
p1278
sg12
g13
(g14
g15
NtRp1279
(dp1280
g18
I1
sg19
I0
sg20
I100
sg21
I0
sg22
I0
sg23
I58
sg24
I0
sbssg25
S'\x90\xfec\x95\xf2\rt\xc0\x05\x9ex\x1f[^\xaf\x99'
p1281
ssS'_usr_local_lib_python2_7_dist-packages_django_utils_html_parser'
p1282
(dp1283
g6
(dp1284
g8
S'_usr_local_lib_python2_7_dist-packages_django_utils_html_parser.html'
p1285
sg10
S'/usr/local/lib/python2.7/dist-packages/django/utils/html_parser'
p1286
sg12
g13
(g14
g15
NtRp1287
(dp1288
g18
I1
sg19
I0
sg20
I86
sg21
I0
sg22
I0
sg23
I77
sg24
I0
sbssg25
S'p\x94\x8f!\xe5`\x89\x10\xf8R\xf2\xd7@~\xc1\xc9'
p1289
ssS'_usr_local_lib_python2_7_dist-packages_django_db_backends_sqlite3_introspection'
p1290
(dp1291
g6
(dp1292
g8
S'_usr_local_lib_python2_7_dist-packages_django_db_backends_sqlite3_introspection.html'
p1293
sg10
S'/usr/local/lib/python2.7/dist-packages/django/db/backends/sqlite3/introspection'
p1294
sg12
g13
(g14
g15
NtRp1295
(dp1296
g18
I1
sg19
I0
sg20
I111
sg21
I0
sg22
I0
sg23
I92
sg24
I0
sbssg25
S'\xfa\xe0\x15\xab-\xfe\x8f\xd77\xb0i\xe0@:\x97\xae'
p1297
ssS'_usr_local_lib_python2_7_dist-packages_django_contrib_messages_storage_session'
p1298
(dp1299
g6
(dp1300
g8
S'_usr_local_lib_python2_7_dist-packages_django_contrib_messages_storage_session.html'
p1301
sg10
S'/usr/local/lib/python2.7/dist-packages/django/contrib/messages/storage/session'
p1302
sg12
g13
(g14
g15
NtRp1303
(dp1304
g18
I1
sg19
I0
sg20
I23
sg21
I0
sg22
I0
sg23
I10
sg24
I0
sbssg25
S'\xa3\x90\x83\xacq*\x12\xe6p\x08\xd68\xb7\x1f\x97\xf7'
p1305
ssS'_usr_local_lib_python2_7_dist-packages_django_apps_config'
p1306
(dp1307
g6
(dp1308
g8
S'_usr_local_lib_python2_7_dist-packages_django_apps_config.html'
p1309
sg10
S'/usr/local/lib/python2.7/dist-packages/django/apps/config'
p1310
sg12
g13
(g14
g15
NtRp1311
(dp1312
g18
I1
sg19
I0
sg20
I81
sg21
I0
sg22
I0
sg23
I16
sg24
I0
sbssg25
S'0\xe6\xe0I\x9d\x1b2\xe3\xad\xa2\xcd\x1ed\x0e\xec/'
p1313
ssS'_usr_local_lib_python2_7_dist-packages_django_db_models_sql_constants'
p1314
(dp1315
g6
(dp1316
g8
S'_usr_local_lib_python2_7_dist-packages_django_db_models_sql_constants.html'
p1317
sg10
S'/usr/local/lib/python2.7/dist-packages/django/db/models/sql/constants'
p1318
sg12
g13
(g14
g15
NtRp1319
(dp1320
g18
I1
sg19
I0
sg20
I12
sg21
I0
sg22
I0
sg23
I0
sg24
I0
sbssg25
S'\xd9\xa0\x04%}\xdd\x7f\xdaP\xfe\xce(\x8f\x8d\x9c|'
p1321
ssS'_usr_local_lib_python2_7_dist-packages_django_db_backends_schema'
p1322
(dp1323
g6
(dp1324
g8
S'_usr_local_lib_python2_7_dist-packages_django_db_backends_schema.html'
p1325
sg10
S'/usr/local/lib/python2.7/dist-packages/django/db/backends/schema'
p1326
sg12
g13
(g14
g15
NtRp1327
(dp1328
g18
I1
sg19
I0
sg20
I367
sg21
I0
sg22
I0
sg23
I223
sg24
I0
sbssg25
S'\xe6\x90\xa3\xea\xe1\xc7\xe2`\x8b3\xf9\x8d\x90\xd7\xd6\xd7'
p1329
ssS'_usr_local_lib_python2_7_dist-packages_pilkit_processors_utils'
p1330
(dp1331
g6
(dp1332
g8
S'_usr_local_lib_python2_7_dist-packages_pilkit_processors_utils.html'
p1333
sg10
S'/usr/local/lib/python2.7/dist-packages/pilkit/processors/utils'
p1334
sg12
g13
(g14
g15
NtRp1335
(dp1336
g18
I1
sg19
I0
sg20
I9
sg21
I0
sg22
I0
sg23
I6
sg24
I0
sbssg25
S'\x0b\x04\xf8\x15\xaf\xd3\xaf\x91\xeb\x88Q\x12\xf7Z\xab\x06'
p1337
ssS'_usr_local_lib_python2_7_dist-packages_django_views_decorators_debug'
p1338
(dp1339
g6
(dp1340
g8
S'_usr_local_lib_python2_7_dist-packages_django_views_decorators_debug.html'
p1341
sg10
S'/usr/local/lib/python2.7/dist-packages/django/views/decorators/debug'
p1342
sg12
g13
(g14
g15
NtRp1343
(dp1344
g18
I1
sg19
I0
sg20
I21
sg21
I0
sg22
I0
sg23
I13
sg24
I0
sbssg25
S'I\x8e\xa5 \xf8\xe3\x9d\x0f\xa4\xa7W+\xde\xa3z\xc6'
p1345
ssS'_usr_local_lib_python2_7_dist-packages_django_template___init__'
p1346
(dp1347
g6
(dp1348
g8
S'_usr_local_lib_python2_7_dist-packages_django_template___init__.html'
p1349
sg10
S'/usr/local/lib/python2.7/dist-packages/django/template/__init__'
p1350
sg12
g13
(g14
g15
NtRp1351
(dp1352
g18
I1
sg19
I0
sg20
I6
sg21
I0
sg22
I0
sg23
I0
sg24
I0
sbssg25
S'\xbd\xcbV\x04\\\x82\xb5\x18\xd1\xcfk\x85 DD\xba'
p1353
ssS'_usr_local_lib_python2_7_dist-packages_pilkit_processors___init__'
p1354
(dp1355
g6
(dp1356
g8
S'_usr_local_lib_python2_7_dist-packages_pilkit_processors___init__.html'
p1357
sg10
S'/usr/local/lib/python2.7/dist-packages/pilkit/processors/__init__'
p1358
sg12
g13
(g14
g15
NtRp1359
(dp1360
g18
I1
sg19
I0
sg20
I4
sg21
I0
sg22
I0
sg23
I0
sg24
I0
sbssg25
S'\xddz\xa3\xe4\xb7\x80=v\x92|$g1\x03\xc3\x8d'
p1361
ssS'_usr_local_lib_python2_7_dist-packages_django_contrib_contenttypes_models'
p1362
(dp1363
g6
(dp1364
g8
S'_usr_local_lib_python2_7_dist-packages_django_contrib_contenttypes_models.html'
p1365
sg10
S'/usr/local/lib/python2.7/dist-packages/django/contrib/contenttypes/models'
p1366
sg12
g13
(g14
g15
NtRp1367
(dp1368
g18
I1
sg19
I0
sg20
I101
sg21
I0
sg22
I0
sg23
I52
sg24
I0
sbssg25
S'\x0e9\xa7\x7f\xe2y\xb7\xe3\xae\xaf\xa3\xc5\xfa\x01I\xa7'
p1369
ssS'_usr_local_lib_python2_7_dist-packages_sqlparse_utils'
p1370
(dp1371
g6
(dp1372
g8
S'_usr_local_lib_python2_7_dist-packages_sqlparse_utils.html'
p1373
sg10
S'/usr/local/lib/python2.7/dist-packages/sqlparse/utils'
p1374
sg12
g13
(g14
g15
NtRp1375
(dp1376
g18
I1
sg19
I0
sg20
I56
sg21
I0
sg22
I0
sg23
I39
sg24
I0
sbssg25
S'J\xfd\x91I\xbf\x12\xdc,\xf9\xb1\x1f\xa0\xcb\x8c\xae_'
p1377
ssS'_usr_local_lib_python2_7_dist-packages_django_core_management_commands_flush'
p1378
(dp1379
g6
(dp1380
g8
S'_usr_local_lib_python2_7_dist-packages_django_core_management_commands_flush.html'
p1381
sg10
S'/usr/local/lib/python2.7/dist-packages/django/core/management/commands/flush'
p1382
sg12
g13
(g14
g15
NtRp1383
(dp1384
g18
I1
sg19
I0
sg20
I51
sg21
I0
sg22
I0
sg23
I11
sg24
I0
sbssg25
S'\xa8\x8a+v2l\x89`\xa2\x83\t\xadnU\x15?'
p1385
ssS'_usr_local_lib_python2_7_dist-packages_django_db_backends_utils'
p1386
(dp1387
g6
(dp1388
g8
S'_usr_local_lib_python2_7_dist-packages_django_db_backends_utils.html'
p1389
sg10
S'/usr/local/lib/python2.7/dist-packages/django/db/backends/utils'
p1390
sg12
g13
(g14
g15
NtRp1391
(dp1392
g18
I1
sg19
I0
sg20
I120
sg21
I0
sg22
I0
sg23
I73
sg24
I0
sbssg25
S'\xc3\xf5\xf1\xf3qg\xdb5\x81)/\nb\xf8g\x8b'
p1393
ssS'_usr_local_lib_python2_7_dist-packages_django_db_migrations_operations_models'
p1394
(dp1395
g6
(dp1396
g8
S'_usr_local_lib_python2_7_dist-packages_django_db_migrations_operations_models.html'
p1397
sg10
S'/usr/local/lib/python2.7/dist-packages/django/db/migrations/operations/models'
p1398
sg12
g13
(g14
g15
NtRp1399
(dp1400
g18
I1
sg19
I0
sg20
I215
sg21
I0
sg22
I0
sg23
I127
sg24
I0
sbssg25
S'\xe3\x83Z\xdcU\x8a\xc5\xa4\xf9p8rhIyn'
p1401
ssS'_usr_local_lib_python2_7_dist-packages_django_db_models_signals'
p1402
(dp1403
g6
(dp1404
g8
S'_usr_local_lib_python2_7_dist-packages_django_db_models_signals.html'
p1405
sg10
S'/usr/local/lib/python2.7/dist-packages/django/db/models/signals'
p1406
sg12
g13
(g14
g15
NtRp1407
(dp1408
g18
I1
sg19
I0
sg20
I43
sg21
I0
sg22
I0
sg23
I13
sg24
I0
sbssg25
S'\xb0\x8b\x99\xfc]2\xbf\xfc\xb8\xffx]D\xfe\xe1\xad'
p1409
ssS'_usr_local_lib_python2_7_dist-packages_django_core_checks_registry'
p1410
(dp1411
g6
(dp1412
g8
S'_usr_local_lib_python2_7_dist-packages_django_core_checks_registry.html'
p1413
sg10
S'/usr/local/lib/python2.7/dist-packages/django/core/checks/registry'
p1414
sg12
g13
(g14
g15
NtRp1415
(dp1416
g18
I1
sg19
I0
sg20
I36
sg21
I0
sg22
I0
sg23
I3
sg24
I0
sbssg25
S')\\\xfeP\xa9\xa2\xa2\xcc.g\xa5\x897\xdf\x0f\x97'
p1417
ssS'_usr_local_lib_python2_7_dist-packages_django_contrib_admin_sites'
p1418
(dp1419
g6
(dp1420
g8
S'_usr_local_lib_python2_7_dist-packages_django_contrib_admin_sites.html'
p1421
sg10
S'/usr/local/lib/python2.7/dist-packages/django/contrib/admin/sites'
p1422
sg12
g13
(g14
g15
NtRp1423
(dp1424
g18
I1
sg19
I0
sg20
I219
sg21
I0
sg22
I0
sg23
I127
sg24
I0
sbssg25
S'\xe2\x8d\xcd\xea\xc9\xa6L\xb5uN\xd8".]}\xed'
p1425
ssS'apps_product_admin'
p1426
(dp1427
g6
(dp1428
g8
S'apps_product_admin.html'
p1429
sg10
S'apps/product/admin'
p1430
sg12
g13
(g14
g15
NtRp1431
(dp1432
g18
I1
sg19
I0
sg20
I3
sg21
I0
sg22
I0
sg23
I0
sg24
I0
sbssg25
S'\xeenq\x86\x0e\xd4,1\xe6\xcaL\x88@}\x1d2'
p1433
ssS'_usr_local_lib_python2_7_dist-packages_django_views_generic_dates'
p1434
(dp1435
g6
(dp1436
g8
S'_usr_local_lib_python2_7_dist-packages_django_views_generic_dates.html'
p1437
sg10
S'/usr/local/lib/python2.7/dist-packages/django/views/generic/dates'
p1438
sg12
g13
(g14
g15
NtRp1439
(dp1440
g18
I1
sg19
I0
sg20
I320
sg21
I0
sg22
I0
sg23
I217
sg24
I0
sbssg25
S'%\xf9\xde\x81R\x876\xb5\x98\x16\x01\xd4C\xd5NY'
p1441
ssS'_usr_local_lib_python2_7_dist-packages_django_core_checks_model_checks'
p1442
(dp1443
g6
(dp1444
g8
S'_usr_local_lib_python2_7_dist-packages_django_core_checks_model_checks.html'
p1445
sg10
S'/usr/local/lib/python2.7/dist-packages/django/core/checks/model_checks'
p1446
sg12
g13
(g14
g15
NtRp1447
(dp1448
g18
I1
sg19
I0
sg20
I23
sg21
I0
sg22
I0
sg23
I5
sg24
I0
sbssg25
S'\xf8K\x0e(\xbdOiFa\x1a\xeb\xf5W\x94\x80\xf4'
p1449
ssS'_usr_local_lib_python2_7_dist-packages_django_core_serializers___init__'
p1450
(dp1451
g6
(dp1452
g8
S'_usr_local_lib_python2_7_dist-packages_django_core_serializers___init__.html'
p1453
sg10
S'/usr/local/lib/python2.7/dist-packages/django/core/serializers/__init__'
p1454
sg12
g13
(g14
g15
NtRp1455
(dp1456
g18
I1
sg19
I0
sg20
I64
sg21
I0
sg22
I0
sg23
I22
sg24
I0
sbssg25
S"\x82\x1e\xd2\xd0<\xf5'\xc3Z\xb7\x83X\x1f&\x92\xac"
p1457
ssS'_usr_local_lib_python2_7_dist-packages_PIL__util'
p1458
(dp1459
g6
(dp1460
g8
S'_usr_local_lib_python2_7_dist-packages_PIL__util.html'
p1461
sg10
S'/usr/local/lib/python2.7/dist-packages/PIL/_util'
p1462
sg12
g13
(g14
g15
NtRp1463
(dp1464
g18
I1
sg19
I0
sg20
I17
sg21
I0
sg22
I0
sg23
I7
sg24
I0
sbssg25
S'\xb6b\xceU\x04\xbbW\xe8\x04\xc4\xa5\xbf\xd2\x07\xe4 '
p1465
ssS'_usr_local_lib_python2_7_dist-packages_PIL_ImageStat'
p1466
(dp1467
g6
(dp1468
g8
S'_usr_local_lib_python2_7_dist-packages_PIL_ImageStat.html'
p1469
sg10
S'/usr/local/lib/python2.7/dist-packages/PIL/ImageStat'
p1470
sg12
g13
(g14
g15
NtRp1471
(dp1472
g18
I1
sg19
I0
sg20
I88
sg21
I0
sg22
I0
sg23
I72
sg24
I0
sbssg25
S'\xdd\xce\x81\xffl+\x05m\xc2\xcclR]nz1'
p1473
ssS'_usr_local_lib_python2_7_dist-packages_django_contrib_sessions_apps'
p1474
(dp1475
g6
(dp1476
g8
S'_usr_local_lib_python2_7_dist-packages_django_contrib_sessions_apps.html'
p1477
sg10
S'/usr/local/lib/python2.7/dist-packages/django/contrib/sessions/apps'
p1478
sg12
g13
(g14
g15
NtRp1479
(dp1480
g18
I1
sg19
I0
sg20
I5
sg21
I0
sg22
I0
sg23
I0
sg24
I0
sbssg25
S'\xe9\xb9\xdeKDm\xd7D\x86x\x1e\x01\xa4a\xf19'
p1481
ssS'_usr_local_lib_python2_7_dist-packages_debug_toolbar_panels_templates_panel'
p1482
(dp1483
g6
(dp1484
g8
S'_usr_local_lib_python2_7_dist-packages_debug_toolbar_panels_templates_panel.html'
p1485
sg10
S'/usr/local/lib/python2.7/dist-packages/debug_toolbar/panels/templates/panel'
p1486
sg12
g13
(g14
g15
NtRp1487
(dp1488
g18
I1
sg19
I0
sg20
I119
sg21
I0
sg22
I0
sg23
I70
sg24
I0
sbssg25
S'P\xdb\x0c&\xd67\xef\xb4\xd2\xe9\r4\xfc3(\x0c'
p1489
ssS'_usr_local_lib_python2_7_dist-packages_PIL_PngImagePlugin'
p1490
(dp1491
g6
(dp1492
g8
S'_usr_local_lib_python2_7_dist-packages_PIL_PngImagePlugin.html'
p1493
sg10
S'/usr/local/lib/python2.7/dist-packages/PIL/PngImagePlugin'
p1494
sg12
g13
(g14
g15
NtRp1495
(dp1496
g18
I1
sg19
I0
sg20
I400
sg21
I0
sg22
I0
sg23
I336
sg24
I0
sbssg25
S'\xbe\xcaI\x82\xf6\x02\xf8fy\xf7\xac\x14\xfe\xefw\x18'
p1497
ssS'_usr_local_lib_python2_7_dist-packages_django_contrib_admin_helpers'
p1498
(dp1499
g6
(dp1500
g8
S'_usr_local_lib_python2_7_dist-packages_django_contrib_admin_helpers.html'
p1501
sg10
S'/usr/local/lib/python2.7/dist-packages/django/contrib/admin/helpers'
p1502
sg12
g13
(g14
g15
NtRp1503
(dp1504
g18
I1
sg19
I0
sg20
I229
sg21
I0
sg22
I0
sg23
I168
sg24
I0
sbssg25
S'q\xa2\x10\x857\x87\x00\xf2\xd0\xabF\xb4CC\x12\xda'
p1505
ssS'_usr_local_lib_python2_7_dist-packages_django_db_migrations_operations_fields'
p1506
(dp1507
g6
(dp1508
g8
S'_usr_local_lib_python2_7_dist-packages_django_db_migrations_operations_fields.html'
p1509
sg10
S'/usr/local/lib/python2.7/dist-packages/django/db/migrations/operations/fields'
p1510
sg12
g13
(g14
g15
NtRp1511
(dp1512
g18
I1
sg19
I0
sg20
I118
sg21
I0
sg22
I0
sg23
I66
sg24
I0
sbssg25
S'{\x14-\x91\x84\xbb\xd8\xd2\x9a\xa2;\xbfU\xd1\xa71'
p1513
ssS'_usr_local_lib_python2_7_dist-packages_django_utils_six'
p1514
(dp1515
g6
(dp1516
g8
S'_usr_local_lib_python2_7_dist-packages_django_utils_six.html'
p1517
sg10
S'/usr/local/lib/python2.7/dist-packages/django/utils/six'
p1518
sg12
g13
(g14
g15
NtRp1519
(dp1520
g18
I1
sg19
I0
sg20
I355
sg21
I0
sg22
I0
sg23
I160
sg24
I0
sbssg25
S'\xfe\xa48\x85\xc5\xd0\xe8\xfc$\xf8\x85\xb7\xf7\x96\x88N'
p1521
ssS'_usr_local_lib_python2_7_dist-packages_sqlparse_sql'
p1522
(dp1523
g6
(dp1524
g8
S'_usr_local_lib_python2_7_dist-packages_sqlparse_sql.html'
p1525
sg10
S'/usr/local/lib/python2.7/dist-packages/sqlparse/sql'
p1526
sg12
g13
(g14
g15
NtRp1527
(dp1528
g18
I1
sg19
I0
sg20
I356
sg21
I0
sg22
I0
sg23
I268
sg24
I0
sbssg25
S'\xcd\xde\x9d\xf5\\m\x10\xddj\x129\x04\xe5\xc8\xc2\xe4'
p1529
ssS'_usr_local_lib_python2_7_dist-packages_django_core_serializers_python'
p1530
(dp1531
g6
(dp1532
g8
S'_usr_local_lib_python2_7_dist-packages_django_core_serializers_python.html'
p1533
sg10
S'/usr/local/lib/python2.7/dist-packages/django/core/serializers/python'
p1534
sg12
g13
(g14
g15
NtRp1535
(dp1536
g18
I1
sg19
I0
sg20
I89
sg21
I0
sg22
I0
sg23
I58
sg24
I0
sbssg25
S'\xa7\xda\x9d\x9f\xfa<y\x97\tmg\xb4\xe0\xceX\x9c'
p1537
ssS'_usr_local_lib_python2_7_dist-packages_django_views_generic_detail'
p1538
(dp1539
g6
(dp1540
g8
S'_usr_local_lib_python2_7_dist-packages_django_views_generic_detail.html'
p1541
sg10
S'/usr/local/lib/python2.7/dist-packages/django/views/generic/detail'
p1542
sg12
g13
(g14
g15
NtRp1543
(dp1544
g18
I1
sg19
I0
sg20
I77
sg21
I0
sg22
I0
sg23
I52
sg24
I0
sbssg25
S'\x13\x07\xf5\xaf\xb0; \xc0\x94c\xfbG4\xc7~\xc2'
p1545
ssS'_usr_local_lib_python2_7_dist-packages_pilkit_processors_crop'
p1546
(dp1547
g6
(dp1548
g8
S'_usr_local_lib_python2_7_dist-packages_pilkit_processors_crop.html'
p1549
sg10
S'/usr/local/lib/python2.7/dist-packages/pilkit/processors/crop'
p1550
sg12
g13
(g14
g15
NtRp1551
(dp1552
g18
I1
sg19
I0
sg20
I90
sg21
I0
sg22
I0
sg23
I60
sg24
I0
sbssg25
S"\x9e\xa4\xb5'\xce\x85B\xf4W \x83\xe8?2I\xb8"
p1553
ssS'_usr_local_lib_python2_7_dist-packages_debug_toolbar_utils'
p1554
(dp1555
g6
(dp1556
g8
S'_usr_local_lib_python2_7_dist-packages_debug_toolbar_utils.html'
p1557
sg10
S'/usr/local/lib/python2.7/dist-packages/debug_toolbar/utils'
p1558
sg12
g13
(g14
g15
NtRp1559
(dp1560
g18
I1
sg19
I0
sg20
I155
sg21
I0
sg22
I0
sg23
I107
sg24
I0
sbssg25
S'K\xceb\x12&\xf3\xfe\x81\x9f\\\x0f\xa5L\\\xaau'
p1561
ssS'_usr_local_lib_python2_7_dist-packages_django_contrib_admin_migrations_0001_initial'
p1562
(dp1563
g6
(dp1564
g8
S'_usr_local_lib_python2_7_dist-packages_django_contrib_admin_migrations_0001_initial.html'
p1565
sg10
S'/usr/local/lib/python2.7/dist-packages/django/contrib/admin/migrations/0001_initial'
p1566
sg12
g13
(g14
g15
NtRp1567
(dp1568
g18
I1
sg19
I0
sg20
I6
sg21
I0
sg22
I0
sg23
I0
sg24
I0
sbssg25
S'm\x83\xc2\x1chZ\xc7\xc6\xec\x14\xf5\xf9\xf0\xc6\xaf~'
p1569
ssS'_usr_local_lib_python2_7_dist-packages_django_views_static'
p1570
(dp1571
g6
(dp1572
g8
S'_usr_local_lib_python2_7_dist-packages_django_views_static.html'
p1573
sg10
S'/usr/local/lib/python2.7/dist-packages/django/views/static'
p1574
sg12
g13
(g14
g15
NtRp1575
(dp1576
g18
I1
sg19
I0
sg20
I73
sg21
I0
sg22
I0
sg23
I57
sg24
I0
sbssg25
S'Bq\n\x9d\xc2\x13\xf7Eg\x8f\xba\xe2\xcc\xec\xbd\x9c'
p1577
ssS'_usr_local_lib_python2_7_dist-packages_sqlparse_formatter'
p1578
(dp1579
g6
(dp1580
g8
S'_usr_local_lib_python2_7_dist-packages_sqlparse_formatter.html'
p1581
sg10
S'/usr/local/lib/python2.7/dist-packages/sqlparse/formatter'
p1582
sg12
g13
(g14
g15
NtRp1583
(dp1584
g18
I1
sg19
I0
sg20
I87
sg21
I0
sg22
I0
sg23
I82
sg24
I0
sbssg25
S'*\x94\x1f\xbc$!\x10\x03\xe2\xa9#<\x1eP&M'
p1585
ssS'_usr_local_lib_python2_7_dist-packages_django_contrib_messages_storage_base'
p1586
(dp1587
g6
(dp1588
g8
S'_usr_local_lib_python2_7_dist-packages_django_contrib_messages_storage_base.html'
p1589
sg10
S'/usr/local/lib/python2.7/dist-packages/django/contrib/messages/storage/base'
p1590
sg12
g13
(g14
g15
NtRp1591
(dp1592
g18
I1
sg19
I0
sg20
I84
sg21
I0
sg22
I0
sg23
I47
sg24
I0
sbssg25
S'\x05\x94\xa5\x19kl-r\x89\xdd\x11\x83|\x82ac'
p1593
ssS'_usr_local_lib_python2_7_dist-packages_django_contrib_auth_migrations___init__'
p1594
(dp1595
g6
(dp1596
g8
S'_usr_local_lib_python2_7_dist-packages_django_contrib_auth_migrations___init__.html'
p1597
sg10
S'/usr/local/lib/python2.7/dist-packages/django/contrib/auth/migrations/__init__'
p1598
sg12
g13
(g14
g15
NtRp1599
(dp1600
g18
I1
sg19
I0
sg20
I0
sg21
I0
sg22
I0
sg23
I0
sg24
I0
sbssg25
S'\xca\xf5\x9f\x7f\x88\xdfa\x831|T\x1d\xbc}\xa5v'
p1601
ssS'_usr_local_lib_python2_7_dist-packages_django_contrib_staticfiles_management___init__'
p1602
(dp1603
g6
(dp1604
g8
S'_usr_local_lib_python2_7_dist-packages_django_contrib_staticfiles_management___init__.html'
p1605
sg10
S'/usr/local/lib/python2.7/dist-packages/django/contrib/staticfiles/management/__init__'
p1606
sg12
g13
(g14
g15
NtRp1607
(dp1608
g18
I1
sg19
I0
sg20
I0
sg21
I0
sg22
I0
sg23
I0
sg24
I0
sbssg25
S'\xca\xf5\x9f\x7f\x88\xdfa\x831|T\x1d\xbc}\xa5v'
p1609
ssS'_usr_local_lib_python2_7_dist-packages_django_views_decorators_csrf'
p1610
(dp1611
g6
(dp1612
g8
S'_usr_local_lib_python2_7_dist-packages_django_views_decorators_csrf.html'
p1613
sg10
S'/usr/local/lib/python2.7/dist-packages/django/views/decorators/csrf'
p1614
sg12
g13
(g14
g15
NtRp1615
(dp1616
g18
I1
sg19
I0
sg20
I27
sg21
I0
sg22
I0
sg23
I6
sg24
I0
sbssg25
S'G\x03/\x82Q8\xb8\xcc\xf2\xc0\xb8\xcb\x97\xaa\xb6\x07'
p1617
ssS'_usr_local_lib_python2_7_dist-packages_django_templatetags_static'
p1618
(dp1619
g6
(dp1620
g8
S'_usr_local_lib_python2_7_dist-packages_django_templatetags_static.html'
p1621
sg10
S'/usr/local/lib/python2.7/dist-packages/django/templatetags/static'
p1622
sg12
g13
(g14
g15
NtRp1623
(dp1624
g18
I1
sg19
I0
sg20
I68
sg21
I0
sg22
I0
sg23
I27
sg24
I0
sbssg25
S'\xb1\xa1Mo\xf6]X\xf9-\xc6Dd\x1b\x8cK\xb4'
p1625
ssS'_usr_local_lib_python2_7_dist-packages_django_utils_dates'
p1626
(dp1627
g6
(dp1628
g8
S'_usr_local_lib_python2_7_dist-packages_django_utils_dates.html'
p1629
sg10
S'/usr/local/lib/python2.7/dist-packages/django/utils/dates'
p1630
sg12
g13
(g14
g15
NtRp1631
(dp1632
g18
I1
sg19
I0
sg20
I9
sg21
I0
sg22
I0
sg23
I0
sg24
I0
sbssg25
S'\xfb\xce\xe0\x8c\x1a\x0e=\xf2u\xe1UP\xf3&\xfcB'
p1633
ssS'_usr_local_lib_python2_7_dist-packages_pkg_resources'
p1634
(dp1635
g6
(dp1636
g8
S'_usr_local_lib_python2_7_dist-packages_pkg_resources.html'
p1637
sg10
S'/usr/local/lib/python2.7/dist-packages/pkg_resources'
p1638
sg12
g13
(g14
g15
NtRp1639
(dp1640
g18
I1
sg19
I0
sg20
I1515
sg21
I0
sg22
I0
sg23
I1454
sg24
I0
sbssg25
S'\x93\xcd2\xd9\x13\x85\x92\x9c\x19X\x1c\x12\xe7\xa6\xe0\xd7'
p1641
ssS'_usr_local_lib_python2_7_dist-packages_django_http_request'
p1642
(dp1643
g6
(dp1644
g8
S'_usr_local_lib_python2_7_dist-packages_django_http_request.html'
p1645
sg10
S'/usr/local/lib/python2.7/dist-packages/django/http/request'
p1646
sg12
g13
(g14
g15
NtRp1647
(dp1648
g18
I1
sg19
I0
sg20
I306
sg21
I0
sg22
I0
sg23
I196
sg24
I0
sbssg25
S'Ll\xc0\x18\xf5M\xbaP\x89\x9c\xbabeS\x10\x04'
p1649
ssS'apps_home_tests'
p1650
(dp1651
g6
(dp1652
g8
S'apps_home_tests.html'
p1653
sg10
S'apps/home/tests'
p1654
sg12
g13
(g14
g15
NtRp1655
(dp1656
g18
I1
sg19
I0
sg20
I67
sg21
I0
sg22
I0
sg23
I0
sg24
I0
sbssg25
S'\xe9\x01\xa8Z\x0f\x89z\x83\x04\xac\x98)\xaf\xddD*'
p1657
ssS'_usr_local_lib_python2_7_dist-packages_django_views_generic_edit'
p1658
(dp1659
g6
(dp1660
g8
S'_usr_local_lib_python2_7_dist-packages_django_views_generic_edit.html'
p1661
sg10
S'/usr/local/lib/python2.7/dist-packages/django/views/generic/edit'
p1662
sg12
g13
(g14
g15
NtRp1663
(dp1664
g18
I1
sg19
I0
sg20
I113
sg21
I0
sg22
I0
sg23
I62
sg24
I0
sbssg25
S'C\xb7\xf9g\xd6\xe2`\xb6\x19\xa8\xc5V\xdd\xff!\xd9'
p1665
ssS'_usr_local_lib_python2_7_dist-packages_imagekit_cachefiles_strategies'
p1666
(dp1667
g6
(dp1668
g8
S'_usr_local_lib_python2_7_dist-packages_imagekit_cachefiles_strategies.html'
p1669
sg10
S'/usr/local/lib/python2.7/dist-packages/imagekit/cachefiles/strategies'
p1670
sg12
g13
(g14
g15
NtRp1671
(dp1672
g18
I1
sg19
I0
sg20
I26
sg21
I0
sg22
I0
sg23
I9
sg24
I0
sbssg25
S'\xce\xfb\xd0w\xbf\x8d\xfc\x8d\xd2\xe1O\x89\x7f"\x00\xce'
p1673
ssS'_usr_local_lib_python2_7_dist-packages_django_db_migrations_operations_special'
p1674
(dp1675
g6
(dp1676
g8
S'_usr_local_lib_python2_7_dist-packages_django_db_migrations_operations_special.html'
p1677
sg10
S'/usr/local/lib/python2.7/dist-packages/django/db/migrations/operations/special'
p1678
sg12
g13
(g14
g15
NtRp1679
(dp1680
g18
I1
sg19
I0
sg20
I72
sg21
I0
sg22
I0
sg23
I49
sg24
I0
sbssg25
S'I4hs\xfb\xc5(\xef\x89\xe2\x8c\xae\x94\xfd\x18@'
p1681
ssS'apps_product_templatetags_cart_tags'
p1682
(dp1683
g6
(dp1684
g8
S'apps_product_templatetags_cart_tags.html'
p1685
sg10
S'apps/product/templatetags/cart_tags'
p1686
sg12
g13
(g14
g15
NtRp1687
(dp1688
g18
I1
sg19
I0
sg20
I7
sg21
I0
sg22
I0
sg23
I0
sg24
I0
sbssg25
S'\x04a\xbd\x99\xd3\x07\xce\xa4\xdf/\xde=g\r\x9f\xa5'
p1689
ssS'_usr_local_lib_python2_7_dist-packages_django_core_management_commands_createcachetable'
p1690
(dp1691
g6
(dp1692
g8
S'_usr_local_lib_python2_7_dist-packages_django_core_management_commands_createcachetable.html'
p1693
sg10
S'/usr/local/lib/python2.7/dist-packages/django/core/management/commands/createcachetable'
p1694
sg12
g13
(g14
g15
NtRp1695
(dp1696
g18
I1
sg19
I0
sg20
I60
sg21
I0
sg22
I0
sg23
I40
sg24
I0
sbssg25
S'\xa1BWa\x1b\t\xcd-\xb0pp\xc9\xdaQ -'
p1697
ssS'_usr_local_lib_python2_7_dist-packages_django_utils_regex_helper'
p1698
(dp1699
g6
(dp1700
g8
S'_usr_local_lib_python2_7_dist-packages_django_utils_regex_helper.html'
p1701
sg10
S'/usr/local/lib/python2.7/dist-packages/django/utils/regex_helper'
p1702
sg12
g13
(g14
g15
NtRp1703
(dp1704
g18
I1
sg19
I0
sg20
I188
sg21
I0
sg22
I0
sg23
I90
sg24
I0
sbssg25
S'X\xf0\xbaC\xe4=\xdd \xb5\xacZp\x8c;\xc4\xe6'
p1705
ssS'_usr_local_lib_python2_7_dist-packages_django_utils_http'
p1706
(dp1707
g6
(dp1708
g8
S'_usr_local_lib_python2_7_dist-packages_django_utils_http.html'
p1709
sg10
S'/usr/local/lib/python2.7/dist-packages/django/utils/http'
p1710
sg12
g13
(g14
g15
NtRp1711
(dp1712
g18
I1
sg19
I0
sg20
I134
sg21
I0
sg22
I0
sg23
I82
sg24
I0
sbssg25
S'\xc4\xd9e\xa4\x00\x87m\x00\xe0\x91\xd5T\xe8\x05\x9b\x98'
p1713
ssS'_usr_local_lib_python2_7_dist-packages_django_core_serializers_json'
p1714
(dp1715
g6
(dp1716
g8
S'_usr_local_lib_python2_7_dist-packages_django_core_serializers_json.html'
p1717
sg10
S'/usr/local/lib/python2.7/dist-packages/django/core/serializers/json'
p1718
sg12
g13
(g14
g15
NtRp1719
(dp1720
g18
I1
sg19
I0
sg20
I76
sg21
I0
sg22
I0
sg23
I36
sg24
I0
sbssg25
S'\xb3"\x8d\xec\x0cU\xb4`\t&}$u0\x06\x96'
p1721
ssS'_usr_local_lib_python2_7_dist-packages_PIL_ImageFilter'
p1722
(dp1723
g6
(dp1724
g8
S'_usr_local_lib_python2_7_dist-packages_PIL_ImageFilter.html'
p1725
sg10
S'/usr/local/lib/python2.7/dist-packages/PIL/ImageFilter'
p1726
sg12
g13
(g14
g15
NtRp1727
(dp1728
g18
I1
sg19
I0
sg20
I92
sg21
I0
sg22
I0
sg23
I29
sg24
I0
sbssg25
S'\xbf\xb4\xcf|\xc9\xe3\xe1\x06\xe6\x91\xfag\x12QN\x1f'
p1729
ssS'_usr_local_lib_python2_7_dist-packages_django_contrib_admin_templatetags_admin_urls'
p1730
(dp1731
g6
(dp1732
g8
S'_usr_local_lib_python2_7_dist-packages_django_contrib_admin_templatetags_admin_urls.html'
p1733
sg10
S'/usr/local/lib/python2.7/dist-packages/django/contrib/admin/templatetags/admin_urls'
p1734
sg12
g13
(g14
g15
NtRp1735
(dp1736
g18
I1
sg19
I0
sg20
I38
sg21
I0
sg22
I0
sg23
I28
sg24
I0
sbssg25
S'\xb6n!\xf6\x91\xd2\xb1\x9d\xad\x04\xbb\xf61D\xc9o'
p1737
ssS'_usr_local_lib_python2_7_dist-packages_django_core_handlers___init__'
p1738
(dp1739
g6
(dp1740
g8
S'_usr_local_lib_python2_7_dist-packages_django_core_handlers___init__.html'
p1741
sg10
S'/usr/local/lib/python2.7/dist-packages/django/core/handlers/__init__'
p1742
sg12
g13
(g14
g15
NtRp1743
(dp1744
g18
I1
sg19
I0
sg20
I0
sg21
I0
sg22
I0
sg23
I0
sg24
I0
sbssg25
S'\xca\xf5\x9f\x7f\x88\xdfa\x831|T\x1d\xbc}\xa5v'
p1745
ssS'_usr_local_lib_python2_7_dist-packages_django_utils_baseconv'
p1746
(dp1747
g6
(dp1748
g8
S'_usr_local_lib_python2_7_dist-packages_django_utils_baseconv.html'
p1749
sg10
S'/usr/local/lib/python2.7/dist-packages/django/utils/baseconv'
p1750
sg12
g13
(g14
g15
NtRp1751
(dp1752
g18
I1
sg19
I0
sg20
I48
sg21
I0
sg22
I0
sg23
I25
sg24
I0
sbssg25
S'\xd5\xdfo\x02\x03\xa3\x0eD\xac^h\x99\x8e,E{'
p1753
ssS'_usr_local_lib_python2_7_dist-packages_django_utils_deprecation'
p1754
(dp1755
g6
(dp1756
g8
S'_usr_local_lib_python2_7_dist-packages_django_utils_deprecation.html'
p1757
sg10
S'/usr/local/lib/python2.7/dist-packages/django/utils/deprecation'
p1758
sg12
g13
(g14
g15
NtRp1759
(dp1760
g18
I1
sg19
I0
sg20
I38
sg21
I0
sg22
I0
sg23
I5
sg24
I0
sbssg25
S"P\xfd'\x10\xad;\xf5\xbd>,o\x85\x95\xfd\xfc\xed"
p1761
ssS'_usr_local_lib_python2_7_dist-packages_django_views_generic___init__'
p1762
(dp1763
g6
(dp1764
g8
S'_usr_local_lib_python2_7_dist-packages_django_views_generic___init__.html'
p1765
sg10
S'/usr/local/lib/python2.7/dist-packages/django/views/generic/__init__'
p1766
sg12
g13
(g14
g15
NtRp1767
(dp1768
g18
I1
sg19
I0
sg20
I8
sg21
I0
sg22
I0
sg23
I0
sg24
I0
sbssg25
S'\xf9G\xe7\xd5\xcb\x18\xd7\xb7\xc2\xf8\xef\xf5\xbe\x99=T'
p1769
ssS'_usr_local_lib_python2_7_dist-packages_django_contrib_sessions_backends_db'
p1770
(dp1771
g6
(dp1772
g8
S'_usr_local_lib_python2_7_dist-packages_django_contrib_sessions_backends_db.html'
p1773
sg10
S'/usr/local/lib/python2.7/dist-packages/django/contrib/sessions/backends/db'
p1774
sg12
g13
(g14
g15
NtRp1775
(dp1776
g18
I1
sg19
I0
sg20
I53
sg21
I0
sg22
I0
sg23
I37
sg24
I0
sbssg25
S'Vi\xeb\xf3\xe31\xb1<=\xe1\xa0\xf8]\x06n+'
p1777
ssS'_usr_local_lib_python2_7_dist-packages_django_contrib_auth_models'
p1778
(dp1779
g6
(dp1780
g8
S'_usr_local_lib_python2_7_dist-packages_django_contrib_auth_models.html'
p1781
sg10
S'/usr/local/lib/python2.7/dist-packages/django/contrib/auth/models'
p1782
sg12
g13
(g14
g15
NtRp1783
(dp1784
g18
I1
sg19
I0
sg20
I236
sg21
I0
sg22
I0
sg23
I92
sg24
I0
sbssg25
S'q\xda\x8b>\xac\x9f\x17g\xcan\xe9p\x8eaY}'
p1785
ssS'_usr_local_lib_python2_7_dist-packages_django_core_files_move'
p1786
(dp1787
g6
(dp1788
g8
S'_usr_local_lib_python2_7_dist-packages_django_core_files_move.html'
p1789
sg10
S'/usr/local/lib/python2.7/dist-packages/django/core/files/move'
p1790
sg12
g13
(g14
g15
NtRp1791
(dp1792
g18
I1
sg19
I0
sg20
I47
sg21
I0
sg22
I0
sg23
I40
sg24
I0
sbssg25
S'0\xbb\xaeZ\xe7X\xe5\xdf\xeeB\x95\xa1e\xd3\x0f\xb1'
p1793
ssS'_usr_local_lib_python2_7_dist-packages_imagekit_exceptions'
p1794
(dp1795
g6
(dp1796
g8
S'_usr_local_lib_python2_7_dist-packages_imagekit_exceptions.html'
p1797
sg10
S'/usr/local/lib/python2.7/dist-packages/imagekit/exceptions'
p1798
sg12
g13
(g14
g15
NtRp1799
(dp1800
g18
I1
sg19
I0
sg20
I11
sg21
I0
sg22
I0
sg23
I0
sg24
I0
sbssg25
S'\x86$mp\x8e]\x93$\xf1\xb9\xa7\xfe\xb9u-\x05'
p1801
ssS'apps_home___init__'
p1802
(dp1803
g6
(dp1804
g8
S'apps_home___init__.html'
p1805
sg10
S'apps/home/__init__'
p1806
sg12
g13
(g14
g15
NtRp1807
(dp1808
g18
I1
sg19
I0
sg20
I0
sg21
I0
sg22
I0
sg23
I0
sg24
I0
sbssg25
S'\xca\xf5\x9f\x7f\x88\xdfa\x831|T\x1d\xbc}\xa5v'
p1809
ssS'_usr_local_lib_python2_7_dist-packages_django_template_debug'
p1810
(dp1811
g6
(dp1812
g8
S'_usr_local_lib_python2_7_dist-packages_django_template_debug.html'
p1813
sg10
S'/usr/local/lib/python2.7/dist-packages/django/template/debug'
p1814
sg12
g13
(g14
g15
NtRp1815
(dp1816
g18
I1
sg19
I0
sg20
I81
sg21
I0
sg22
I0
sg23
I21
sg24
I0
sbssg25
S'\xb9\xd2\xb5Zxl\x8d\x94\xe6\xe5\xeah\xdb\xbf\x92w'
p1817
ssS'_usr_local_lib_python2_7_dist-packages_django_contrib_contenttypes_management'
p1818
(dp1819
g6
(dp1820
g8
S'_usr_local_lib_python2_7_dist-packages_django_contrib_contenttypes_management.html'
p1821
sg10
S'/usr/local/lib/python2.7/dist-packages/django/contrib/contenttypes/management'
p1822
sg12
g13
(g14
g15
NtRp1823
(dp1824
g18
I1
sg19
I0
sg20
I45
sg21
I0
sg22
I0
sg23
I20
sg24
I0
sbssg25
S'\xf52\x86x\x88\x8e\xcf=\x97\xc0u\x8dJ\x15E\xe2'
p1825
ssS'_usr_local_lib_python2_7_dist-packages_django_core_paginator'
p1826
(dp1827
g6
(dp1828
g8
S'_usr_local_lib_python2_7_dist-packages_django_core_paginator.html'
p1829
sg10
S'/usr/local/lib/python2.7/dist-packages/django/core/paginator'
p1830
sg12
g13
(g14
g15
NtRp1831
(dp1832
g18
I1
sg19
I0
sg20
I90
sg21
I0
sg22
I0
sg23
I20
sg24
I0
sbssg25
S'S\xeb\xf7\xbc#\x8c\x94\xb7\x12\x1a\xf5\x8c\x10-\x1c\x88'
p1833
ssS'_usr_local_lib_python2_7_dist-packages_django_contrib_auth_migrations_0001_initial'
p1834
(dp1835
g6
(dp1836
g8
S'_usr_local_lib_python2_7_dist-packages_django_contrib_auth_migrations_0001_initial.html'
p1837
sg10
S'/usr/local/lib/python2.7/dist-packages/django/contrib/auth/migrations/0001_initial'
p1838
sg12
g13
(g14
g15
NtRp1839
(dp1840
g18
I1
sg19
I0
sg20
I7
sg21
I0
sg22
I0
sg23
I0
sg24
I0
sbssg25
S'\xa8J\xc1\x1d&\xe7\xd1\x0f<\xe6q\xdc\x88\x00}\xab'
p1841
ssS'_usr_local_lib_python2_7_dist-packages_django_core_management_color'
p1842
(dp1843
g6
(dp1844
g8
S'_usr_local_lib_python2_7_dist-packages_django_core_management_color.html'
p1845
sg10
S'/usr/local/lib/python2.7/dist-packages/django/core/management/color'
p1846
sg12
g13
(g14
g15
NtRp1847
(dp1848
g18
I1
sg19
I0
sg20
I30
sg21
I0
sg22
I0
sg23
I4
sg24
I0
sbssg25
S'\xcde#c\xac9\xe1\x04\x04M\xa6B\xf3\x92AI'
p1849
ssS'_usr_local_lib_python2_7_dist-packages_django_middleware_gzip'
p1850
(dp1851
g6
(dp1852
g8
S'_usr_local_lib_python2_7_dist-packages_django_middleware_gzip.html'
p1853
sg10
S'/usr/local/lib/python2.7/dist-packages/django/middleware/gzip'
p1854
sg12
g13
(g14
g15
NtRp1855
(dp1856
g18
I1
sg19
I0
sg20
I30
sg21
I0
sg22
I0
sg23
I24
sg24
I0
sbssg25
S'\x989\x85\xab\xacWB\xa1\xc3/\x07\xd7\x8c\xed\xad\x9d'
p1857
ssS'_usr_local_lib_python2_7_dist-packages_PIL_JpegImagePlugin'
p1858
(dp1859
g6
(dp1860
g8
S'_usr_local_lib_python2_7_dist-packages_PIL_JpegImagePlugin.html'
p1861
sg10
S'/usr/local/lib/python2.7/dist-packages/PIL/JpegImagePlugin'
p1862
sg12
g13
(g14
g15
NtRp1863
(dp1864
g18
I1
sg19
I0
sg20
I372
sg21
I0
sg22
I0
sg23
I216
sg24
I0
sbssg25
S'\xe8\xdf\x00o*\xb6\xde2\x11\xb3\xc2\xc9\x94\xae\x85\xfd'
p1865
ssS'_usr_local_lib_python2_7_dist-packages_django_core_serializers_xml_serializer'
p1866
(dp1867
g6
(dp1868
g8
S'_usr_local_lib_python2_7_dist-packages_django_core_serializers_xml_serializer.html'
p1869
sg10
S'/usr/local/lib/python2.7/dist-packages/django/core/serializers/xml_serializer'
p1870
sg12
g13
(g14
g15
NtRp1871
(dp1872
g18
I1
sg19
I0
sg20
I212
sg21
I0
sg22
I0
sg23
I165
sg24
I0
sbssg25
S'D\x93\xaf\x0c\x11\xea\x1f\xe3CT\x93T> \xd0\x13'
p1873
ssS'_usr_local_lib_python2_7_dist-packages_django_http_cookie'
p1874
(dp1875
g6
(dp1876
g8
S'_usr_local_lib_python2_7_dist-packages_django_http_cookie.html'
p1877
sg10
S'/usr/local/lib/python2.7/dist-packages/django/http/cookie'
p1878
sg12
g13
(g14
g15
NtRp1879
(dp1880
g18
I1
sg19
I0
sg20
I55
sg21
I0
sg22
I0
sg23
I30
sg24
I0
sbssg25
S'=\xf9\xfe\x10(\x88\xddey\x18\x18\xe0\xbe\x95\xdf\xa3'
p1881
ssS'_usr_local_lib_python2_7_dist-packages_django_middleware_clickjacking'
p1882
(dp1883
g6
(dp1884
g8
S'_usr_local_lib_python2_7_dist-packages_django_middleware_clickjacking.html'
p1885
sg10
S'/usr/local/lib/python2.7/dist-packages/django/middleware/clickjacking'
p1886
sg12
g13
(g14
g15
NtRp1887
(dp1888
g18
I1
sg19
I0
sg20
I11
sg21
I0
sg22
I0
sg23
I2
sg24
I0
sbssg25
S'?\x8ayY\xa24Kw\x89\x05z?\xd9\xcf\xb8\xff'
p1889
ssS'_usr_local_lib_python2_7_dist-packages_django_utils___init__'
p1890
(dp1891
g6
(dp1892
g8
S'_usr_local_lib_python2_7_dist-packages_django_utils___init__.html'
p1893
sg10
S'/usr/local/lib/python2.7/dist-packages/django/utils/__init__'
p1894
sg12
g13
(g14
g15
NtRp1895
(dp1896
g18
I1
sg19
I0
sg20
I0
sg21
I0
sg22
I0
sg23
I0
sg24
I0
sbssg25
S'\xca\xf5\x9f\x7f\x88\xdfa\x831|T\x1d\xbc}\xa5v'
p1897
ssS'_usr_local_lib_python2_7_dist-packages_django_db_transaction'
p1898
(dp1899
g6
(dp1900
g8
S'_usr_local_lib_python2_7_dist-packages_django_db_transaction.html'
p1901
sg10
S'/usr/local/lib/python2.7/dist-packages/django/db/transaction'
p1902
sg12
g13
(g14
g15
NtRp1903
(dp1904
g18
I1
sg19
I0
sg20
I207
sg21
I0
sg22
I0
sg23
I115
sg24
I0
sbssg25
S'\xb8WDG8H\x139\xb6!\xe2\xff\xb5\xcco\xd3'
p1905
ssS'_usr_local_lib_python2_7_dist-packages_django_template_loader'
p1906
(dp1907
g6
(dp1908
g8
S'_usr_local_lib_python2_7_dist-packages_django_template_loader.html'
p1909
sg10
S'/usr/local/lib/python2.7/dist-packages/django/template/loader'
p1910
sg12
g13
(g14
g15
NtRp1911
(dp1912
g18
I1
sg19
I0
sg20
I95
sg21
I0
sg22
I0
sg23
I31
sg24
I0
sbssg25
S'\xee6\xfc\x89\xc1\x17\xc7\xae\x86\x13\x8c&\xed7\xba\x98'
p1913
ssS'_usr_local_lib_python2_7_dist-packages_django_forms_widgets'
p1914
(dp1915
g6
(dp1916
g8
S'_usr_local_lib_python2_7_dist-packages_django_forms_widgets.html'
p1917
sg10
S'/usr/local/lib/python2.7/dist-packages/django/forms/widgets'
p1918
sg12
g13
(g14
g15
NtRp1919
(dp1920
g18
I1
sg19
I0
sg20
I508
sg21
I0
sg22
I0
sg23
I307
sg24
I0
sbssg25
S'\x98oXH\xbc\nk\xdf\x1a\x99\xe2\x7fc#\x8d\xec'
p1921
ssS'_usr_local_lib_python2_7_dist-packages_appconf_utils'
p1922
(dp1923
g6
(dp1924
g8
S'_usr_local_lib_python2_7_dist-packages_appconf_utils.html'
p1925
sg10
S'/usr/local/lib/python2.7/dist-packages/appconf/utils'
p1926
sg12
g13
(g14
g15
NtRp1927
(dp1928
g18
I1
sg19
I0
sg20
I8
sg21
I12
sg22
I0
sg23
I0
sg24
I0
sbssg25
S'\x18H_&}\x1a\n\x8ed\x1ed\xf4\x1b\xba W'
p1929
ssS'_usr_local_lib_python2_7_dist-packages_django_core_mail___init__'
p1930
(dp1931
g6
(dp1932
g8
S'_usr_local_lib_python2_7_dist-packages_django_core_mail___init__.html'
p1933
sg10
S'/usr/local/lib/python2.7/dist-packages/django/core/mail/__init__'
p1934
sg12
g13
(g14
g15
NtRp1935
(dp1936
g18
I1
sg19
I0
sg20
I33
sg21
I0
sg22
I0
sg23
I22
sg24
I0
sbssg25
S'\xe9\xab\x14M=\x19?\x03\xec\xf3\xfa\x8b?\x02~\xd6'
p1937
ssS'_usr_local_lib_python2_7_dist-packages_django_utils_dateformat'
p1938
(dp1939
g6
(dp1940
g8
S'_usr_local_lib_python2_7_dist-packages_django_utils_dateformat.html'
p1941
sg10
S'/usr/local/lib/python2.7/dist-packages/django/utils/dateformat'
p1942
sg12
g13
(g14
g15
NtRp1943
(dp1944
g18
I1
sg19
I0
sg20
I184
sg21
I0
sg22
I0
sg23
I124
sg24
I0
sbssg25
S'\xe3\x02\\t\t\xcc\xccv\xe6N\xb3q\x13\x8f\xa8\xcc'
p1945
ssS'apps___init__'
p1946
(dp1947
g6
(dp1948
g8
S'apps___init__.html'
p1949
sg10
S'apps/__init__'
p1950
sg12
g13
(g14
g15
NtRp1951
(dp1952
g18
I1
sg19
I0
sg20
I0
sg21
I0
sg22
I0
sg23
I0
sg24
I0
sbssg25
S'\xca\xf5\x9f\x7f\x88\xdfa\x831|T\x1d\xbc}\xa5v'
p1953
ssS'_usr_local_lib_python2_7_dist-packages_PIL___init__'
p1954
(dp1955
g6
(dp1956
g8
S'_usr_local_lib_python2_7_dist-packages_PIL___init__.html'
p1957
sg10
S'/usr/local/lib/python2.7/dist-packages/PIL/__init__'
p1958
sg12
g13
(g14
g15
NtRp1959
(dp1960
g18
I1
sg19
I0
sg20
I3
sg21
I0
sg22
I0
sg23
I0
sg24
I0
sbssg25
S'\xf4\xeb\x84U\x94\xee\xf3l8B\x04\xca\xc6\x89\x16\xdc'
p1961
ssS'_usr_local_lib_python2_7_dist-packages_django_contrib_contenttypes_migrations___init__'
p1962
(dp1963
g6
(dp1964
g8
S'_usr_local_lib_python2_7_dist-packages_django_contrib_contenttypes_migrations___init__.html'
p1965
sg10
S'/usr/local/lib/python2.7/dist-packages/django/contrib/contenttypes/migrations/__init__'
p1966
sg12
g13
(g14
g15
NtRp1967
(dp1968
g18
I1
sg19
I0
sg20
I0
sg21
I0
sg22
I0
sg23
I0
sg24
I0
sbssg25
S'\xca\xf5\x9f\x7f\x88\xdfa\x831|T\x1d\xbc}\xa5v'
p1969
ssS'_usr_local_lib_python2_7_dist-packages_django_core_wsgi'
p1970
(dp1971
g6
(dp1972
g8
S'_usr_local_lib_python2_7_dist-packages_django_core_wsgi.html'
p1973
sg10
S'/usr/local/lib/python2.7/dist-packages/django/core/wsgi'
p1974
sg12
g13
(g14
g15
NtRp1975
(dp1976
g18
I1
sg19
I0
sg20
I5
sg21
I0
sg22
I0
sg23
I2
sg24
I0
sbssg25
S'\xcb\xa3\x0c\x90\xbe|\xe5}\x13v\x9f[m\xed\x86\xda'
p1977
ssS'_usr_local_lib_python2_7_dist-packages_django_contrib_messages_storage_fallback'
p1978
(dp1979
g6
(dp1980
g8
S'_usr_local_lib_python2_7_dist-packages_django_contrib_messages_storage_fallback.html'
p1981
sg10
S'/usr/local/lib/python2.7/dist-packages/django/contrib/messages/storage/fallback'
p1982
sg12
g13
(g14
g15
NtRp1983
(dp1984
g18
I1
sg19
I0
sg20
I29
sg21
I0
sg22
I0
sg23
I18
sg24
I0
sbssg25
S'.\xc9\x11yT\xbe\xa2@\xfb\xb6"L\xdc\xd2\x01\x98'
p1985
ssS'_usr_local_lib_python2_7_dist-packages_sqlparse___init__'
p1986
(dp1987
g6
(dp1988
g8
S'_usr_local_lib_python2_7_dist-packages_sqlparse___init__.html'
p1989
sg10
S'/usr/local/lib/python2.7/dist-packages/sqlparse/__init__'
p1990
sg12
g13
(g14
g15
NtRp1991
(dp1992
g18
I1
sg19
I0
sg20
I27
sg21
I0
sg22
I0
sg23
I15
sg24
I0
sbssg25
S'\xd2\xa8Uz\xbc \xceg\xbb\x04T\xb6\xe3\x8e\x92&'
p1993
ssS'_usr_local_lib_python2_7_dist-packages_imagekit_models___init__'
p1994
(dp1995
g6
(dp1996
g8
S'_usr_local_lib_python2_7_dist-packages_imagekit_models___init__.html'
p1997
sg10
S'/usr/local/lib/python2.7/dist-packages/imagekit/models/__init__'
p1998
sg12
g13
(g14
g15
NtRp1999
(dp2000
g18
I1
sg19
I0
sg20
I2
sg21
I0
sg22
I0
sg23
I0
sg24
I0
sbssg25
S'\xca8\xc7\xc2^\x9d\xe0\xa0L\xef\xd3\xcd\xd7\xabK\x86'
p2001
ssS'_usr_local_lib_python2_7_dist-packages_debug_toolbar_panels_templates_views'
p2002
(dp2003
g6
(dp2004
g8
S'_usr_local_lib_python2_7_dist-packages_debug_toolbar_panels_templates_views.html'
p2005
sg10
S'/usr/local/lib/python2.7/dist-packages/debug_toolbar/panels/templates/views'
p2006
sg12
g13
(g14
g15
NtRp2007
(dp2008
g18
I1
sg19
I0
sg20
I32
sg21
I0
sg22
I0
sg23
I24
sg24
I0
sbssg25
S'~e\xf2\xf0\xfa\xabJ|\xc9\xe3\xe5\xdd\xc7H\xbb\xcd'
p2009
ssS'_usr_local_lib_python2_7_dist-packages_django_utils_translation_trans_null'
p2010
(dp2011
g6
(dp2012
g8
S'_usr_local_lib_python2_7_dist-packages_django_utils_translation_trans_null.html'
p2013
sg10
S'/usr/local/lib/python2.7/dist-packages/django/utils/translation/trans_null'
p2014
sg12
g13
(g14
g15
NtRp2015
(dp2016
g18
I1
sg19
I0
sg20
I35
sg21
I0
sg22
I0
sg23
I13
sg24
I0
sbssg25
S'\xc4\xb8:\x0f\x17\xb4\x16C]\x82\xbc\xb0\xfb\xc5\x14B'
p2017
ssS'_usr_local_lib_python2_7_dist-packages_django_conf___init__'
p2018
(dp2019
g6
(dp2020
g8
S'_usr_local_lib_python2_7_dist-packages_django_conf___init__.html'
p2021
sg10
S'/usr/local/lib/python2.7/dist-packages/django/conf/__init__'
p2022
sg12
g13
(g14
g15
NtRp2023
(dp2024
g18
I1
sg19
I0
sg20
I88
sg21
I0
sg22
I0
sg23
I30
sg24
I0
sbssg25
S'\xe5\xbd\xe0\xd5U\xec\xc3\x00/q\xc1%]y\xaa\x90'
p2025
ssS'_usr_local_lib_python2_7_dist-packages_imagekit_utils'
p2026
(dp2027
g6
(dp2028
g8
S'_usr_local_lib_python2_7_dist-packages_imagekit_utils.html'
p2029
sg10
S'/usr/local/lib/python2.7/dist-packages/imagekit/utils'
p2030
sg12
g13
(g14
g15
NtRp2031
(dp2032
g18
I1
sg19
I0
sg20
I85
sg21
I0
sg22
I0
sg23
I20
sg24
I0
sbssg25
S'\xaa\x0ev\xf3-{\x03_\xd8\xf9\x11\xbf\xea\x1f\x10Z'
p2033
ssS'_usr_local_lib_python2_7_dist-packages_django_contrib_sites_requests'
p2034
(dp2035
g6
(dp2036
g8
S'_usr_local_lib_python2_7_dist-packages_django_contrib_sites_requests.html'
p2037
sg10
S'/usr/local/lib/python2.7/dist-packages/django/contrib/sites/requests'
p2038
sg12
g13
(g14
g15
NtRp2039
(dp2040
g18
I1
sg19
I0
sg20
I12
sg21
I0
sg22
I0
sg23
I4
sg24
I0
sbssg25
S'\x82\t\xca\x19\xff`,\xd2-\x83-\x87\xed\xac\xefi'
p2041
ssS'_usr_local_lib_python2_7_dist-packages_pilkit_processors_resize'
p2042
(dp2043
g6
(dp2044
g8
S'_usr_local_lib_python2_7_dist-packages_pilkit_processors_resize.html'
p2045
sg10
S'/usr/local/lib/python2.7/dist-packages/pilkit/processors/resize'
p2046
sg12
g13
(g14
g15
NtRp2047
(dp2048
g18
I1
sg19
I0
sg20
I116
sg21
I0
sg22
I0
sg23
I54
sg24
I0
sbssg25
S'\x8eU\xac/5\x8a\xebS\x1a\x87\xf9\x0bVBG\xb0'
p2049
ssS'_usr_local_lib_python2_7_dist-packages_django_test_html'
p2050
(dp2051
g6
(dp2052
g8
S'_usr_local_lib_python2_7_dist-packages_django_test_html.html'
p2053
sg10
S'/usr/local/lib/python2.7/dist-packages/django/test/html'
p2054
sg12
g13
(g14
g15
NtRp2055
(dp2056
g18
I1
sg19
I0
sg20
I167
sg21
I0
sg22
I0
sg23
I128
sg24
I0
sbssg25
S'\xc1wD\x836\xc5uF\x9a\xd0\x7f\x9c\xe1\xbe\x8em'
p2057
ssS'_usr_local_lib_python2_7_dist-packages_django_utils_timezone'
p2058
(dp2059
g6
(dp2060
g8
S'_usr_local_lib_python2_7_dist-packages_django_utils_timezone.html'
p2061
sg10
S'/usr/local/lib/python2.7/dist-packages/django/utils/timezone'
p2062
sg12
g13
(g14
g15
NtRp2063
(dp2064
g18
I1
sg19
I0
sg20
I145
sg21
I0
sg22
I0
sg23
I87
sg24
I0
sbssg25
S'.zv\x80\x87\xea\xe9\xc5\x10 B\xce\xb1f\xd6h'
p2065
ssS'_usr_local_lib_python2_7_dist-packages_django_core_servers_basehttp'
p2066
(dp2067
g6
(dp2068
g8
S'_usr_local_lib_python2_7_dist-packages_django_core_servers_basehttp.html'
p2069
sg10
S'/usr/local/lib/python2.7/dist-packages/django/core/servers/basehttp'
p2070
sg12
g13
(g14
g15
NtRp2071
(dp2072
g18
I1
sg19
I0
sg20
I88
sg21
I0
sg22
I0
sg23
I58
sg24
I0
sbssg25
S'\x02\xa0,\x15vA$\xf8_\xe4\x86\x0cp\x9dw\x98'
p2073
ssS'_usr_local_lib_python2_7_dist-packages_pilkit_pkgmeta'
p2074
(dp2075
g6
(dp2076
g8
S'_usr_local_lib_python2_7_dist-packages_pilkit_pkgmeta.html'
p2077
sg10
S'/usr/local/lib/python2.7/dist-packages/pilkit/pkgmeta'
p2078
sg12
g13
(g14
g15
NtRp2079
(dp2080
g18
I1
sg19
I0
sg20
I5
sg21
I0
sg22
I0
sg23
I0
sg24
I0
sbssg25
S'\x80}\xc9\x85\x94\xfb\x9d\xdcq\x06\x8f\xa5\xfb\xb0\x17p'
p2081
ssS'_usr_local_lib_python2_7_dist-packages_debug_toolbar_panels_timer'
p2082
(dp2083
g6
(dp2084
g8
S'_usr_local_lib_python2_7_dist-packages_debug_toolbar_panels_timer.html'
p2085
sg10
S'/usr/local/lib/python2.7/dist-packages/debug_toolbar/panels/timer'
p2086
sg12
g13
(g14
g15
NtRp2087
(dp2088
g18
I1
sg19
I0
sg20
I46
sg21
I0
sg22
I0
sg23
I30
sg24
I0
sbssg25
S'!\x96n\xbf\x06^+g\xe5\x1e\xf2\xad\x84\xcb\x8e\xac'
p2089
ssS'_usr_local_lib_python2_7_dist-packages_django_contrib_contenttypes_migrations_0001_initial'
p2090
(dp2091
g6
(dp2092
g8
S'_usr_local_lib_python2_7_dist-packages_django_contrib_contenttypes_migrations_0001_initial.html'
p2093
sg10
S'/usr/local/lib/python2.7/dist-packages/django/contrib/contenttypes/migrations/0001_initial'
p2094
sg12
g13
(g14
g15
NtRp2095
(dp2096
g18
I1
sg19
I0
sg20
I5
sg21
I0
sg22
I0
sg23
I0
sg24
I0
sbssg25
S'hY9\xebs\xee\x9c\xe0\xed\x1f\xd4\xecD\x1d\x8b\xd8'
p2097
ssS'_usr_local_lib_python2_7_dist-packages_debug_toolbar_panels_sql___init__'
p2098
(dp2099
g6
(dp2100
g8
S'_usr_local_lib_python2_7_dist-packages_debug_toolbar_panels_sql___init__.html'
p2101
sg10
S'/usr/local/lib/python2.7/dist-packages/debug_toolbar/panels/sql/__init__'
p2102
sg12
g13
(g14
g15
NtRp2103
(dp2104
g18
I1
sg19
I0
sg20
I1
sg21
I0
sg22
I0
sg23
I0
sg24
I0
sbssg25
S'\xe6D\xaa\xe4\x8eB\x93\x1cU\x9c\x7f]\x19\xe5\xc1\x82'
p2105
ssS'_usr_local_lib_python2_7_dist-packages_django_core_files_images'
p2106
(dp2107
g6
(dp2108
g8
S'_usr_local_lib_python2_7_dist-packages_django_core_files_images.html'
p2109
sg10
S'/usr/local/lib/python2.7/dist-packages/django/core/files/images'
p2110
sg12
g13
(g14
g15
NtRp2111
(dp2112
g18
I1
sg19
I0
sg20
I43
sg21
I0
sg22
I0
sg23
I34
sg24
I0
sbssg25
S'\x96\xd4\x1d\xee\xbb\x9b]\x87\x8d\xc7\x96\x0cy\xb3\x13\xf7'
p2113
ssS'_usr_local_lib_python2_7_dist-packages_django_db_utils'
p2114
(dp2115
g6
(dp2116
g8
S'_usr_local_lib_python2_7_dist-packages_django_db_utils.html'
p2117
sg10
S'/usr/local/lib/python2.7/dist-packages/django/db/utils'
p2118
sg12
g13
(g14
g15
NtRp2119
(dp2120
g18
I1
sg19
I0
sg20
I204
sg21
I0
sg22
I0
sg23
I70
sg24
I0
sbssg25
S'mDU\x0c\x08\xdar\xd6x\xc4\xcb\x14\x8f\x19AR'
p2121
ssS'_usr_local_lib_python2_7_dist-packages_django_core_management_commands_loaddata'
p2122
(dp2123
g6
(dp2124
g8
S'_usr_local_lib_python2_7_dist-packages_django_core_management_commands_loaddata.html'
p2125
sg10
S'/usr/local/lib/python2.7/dist-packages/django/core/management/commands/loaddata'
p2126
sg12
g13
(g14
g15
NtRp2127
(dp2128
g18
I1
sg19
I0
sg20
I173
sg21
I0
sg22
I0
sg23
I68
sg24
I0
sbssg25
S'%\xc1\xcd\xb9"\xb1=\x91\xfc\x1d4u\xbf\'M\x07'
p2129
ssS'_usr_local_lib_python2_7_dist-packages_django_utils_importlib'
p2130
(dp2131
g6
(dp2132
g8
S'_usr_local_lib_python2_7_dist-packages_django_utils_importlib.html'
p2133
sg10
S'/usr/local/lib/python2.7/dist-packages/django/utils/importlib'
p2134
sg12
g13
(g14
g15
NtRp2135
(dp2136
g18
I1
sg19
I0
sg20
I29
sg21
I0
sg22
I0
sg23
I18
sg24
I0
sbssg25
S'\xbaI2\x9d\xcc@\xab\xcb\xee\xe3\x9b\xdcoh\xb4\xc7'
p2137
ssS'_usr_local_lib_python2_7_dist-packages_django_contrib_messages_utils'
p2138
(dp2139
g6
(dp2140
g8
S'_usr_local_lib_python2_7_dist-packages_django_contrib_messages_utils.html'
p2141
sg10
S'/usr/local/lib/python2.7/dist-packages/django/contrib/messages/utils'
p2142
sg12
g13
(g14
g15
NtRp2143
(dp2144
g18
I1
sg19
I0
sg20
I6
sg21
I0
sg22
I0
sg23
I0
sg24
I0
sbssg25
S'\xee\xe6V\xce4\x04\x08y\xc9\xf2\xff\xc9T\xbc?\xa1'
p2145
ssS'_usr_local_lib_python2_7_dist-packages_PIL_ImageEnhance'
p2146
(dp2147
g6
(dp2148
g8
S'_usr_local_lib_python2_7_dist-packages_PIL_ImageEnhance.html'
p2149
sg10
S'/usr/local/lib/python2.7/dist-packages/PIL/ImageEnhance'
p2150
sg12
g13
(g14
g15
NtRp2151
(dp2152
g18
I1
sg19
I0
sg20
I30
sg21
I0
sg22
I0
sg23
I19
sg24
I0
sbssg25
S'\xfd\x8c\x15~\xb3N\x8d\x0c_I\xa8\xfc\xf7\xc9@a'
p2153
ssS'_usr_local_lib_python2_7_dist-packages_django_db_models_sql_datastructures'
p2154
(dp2155
g6
(dp2156
g8
S'_usr_local_lib_python2_7_dist-packages_django_db_models_sql_datastructures.html'
p2157
sg10
S'/usr/local/lib/python2.7/dist-packages/django/db/models/sql/datastructures'
p2158
sg12
g13
(g14
g15
NtRp2159
(dp2160
g18
I1
sg19
I0
sg20
I48
sg21
I0
sg22
I0
sg23
I21
sg24
I0
sbssg25
S"K\x1fq\x8al\xafs\x9a\xf3|\xc9\xd2\x88'WZ"
p2161
ssS'_usr_local_lib_python2_7_dist-packages_imagekit_generatorlibrary'
p2162
(dp2163
g6
(dp2164
g8
S'_usr_local_lib_python2_7_dist-packages_imagekit_generatorlibrary.html'
p2165
sg10
S'/usr/local/lib/python2.7/dist-packages/imagekit/generatorlibrary'
p2166
sg12
g13
(g14
g15
NtRp2167
(dp2168
g18
I1
sg19
I0
sg20
I8
sg21
I0
sg22
I0
sg23
I2
sg24
I0
sbssg25
S'\x9a\xb8t\x0fN\xb3\xa5D\x8c\x9d\xfe_\xa9n\xf8\xda'
p2169
ssS'_usr_local_lib_python2_7_dist-packages_django_db_backends_sqlite3___init__'
p2170
(dp2171
g6
(dp2172
g8
S'_usr_local_lib_python2_7_dist-packages_django_db_backends_sqlite3___init__.html'
p2173
sg10
S'/usr/local/lib/python2.7/dist-packages/django/db/backends/sqlite3/__init__'
p2174
sg12
g13
(g14
g15
NtRp2175
(dp2176
g18
I1
sg19
I0
sg20
I0
sg21
I0
sg22
I0
sg23
I0
sg24
I0
sbssg25
S'\xca\xf5\x9f\x7f\x88\xdfa\x831|T\x1d\xbc}\xa5v'
p2177
ssS'_usr_local_lib_python2_7_dist-packages_django_contrib_admin_options'
p2178
(dp2179
g6
(dp2180
g8
S'_usr_local_lib_python2_7_dist-packages_django_contrib_admin_options.html'
p2181
sg10
S'/usr/local/lib/python2.7/dist-packages/django/contrib/admin/options'
p2182
sg12
g13
(g14
g15
NtRp2183
(dp2184
g18
I1
sg19
I0
sg20
I951
sg21
I0
sg22
I0
sg23
I725
sg24
I0
sbssg25
S'\xb3\xf3h\xf2J\x17\xdf-\xb68\x89\x07\x8a5u\xd0'
p2185
ssS'_usr_local_lib_python2_7_dist-packages_django_db_models_constants'
p2186
(dp2187
g6
(dp2188
g8
S'_usr_local_lib_python2_7_dist-packages_django_db_models_constants.html'
p2189
sg10
S'/usr/local/lib/python2.7/dist-packages/django/db/models/constants'
p2190
sg12
g13
(g14
g15
NtRp2191
(dp2192
g18
I1
sg19
I0
sg20
I1
sg21
I0
sg22
I0
sg23
I0
sg24
I0
sbssg25
S'K\x0f@\x85\xa8\x06~v\xd55D;1,\x0f\x95'
p2193
ssS'_usr_local_lib_python2_7_dist-packages_django_contrib_sessions_middleware'
p2194
(dp2195
g6
(dp2196
g8
S'_usr_local_lib_python2_7_dist-packages_django_contrib_sessions_middleware.html'
p2197
sg10
S'/usr/local/lib/python2.7/dist-packages/django/contrib/sessions/middleware'
p2198
sg12
g13
(g14
g15
NtRp2199
(dp2200
g18
I1
sg19
I0
sg20
I31
sg21
I0
sg22
I0
sg23
I11
sg24
I0
sbssg25
S'\xdaBJ\x1dT\xf4\xd3\\[w\xeel\x17.\x82\xb3'
p2201
ssS'_usr_local_lib_python2_7_dist-packages_django_db_models_expressions'
p2202
(dp2203
g6
(dp2204
g8
S'_usr_local_lib_python2_7_dist-packages_django_db_models_expressions.html'
p2205
sg10
S'/usr/local/lib/python2.7/dist-packages/django/db/models/expressions'
p2206
sg12
g13
(g14
g15
NtRp2207
(dp2208
g18
I1
sg19
I0
sg20
I95
sg21
I0
sg22
I0
sg23
I49
sg24
I0
sbssg25
S')U4\x9c\x03\x91+\xbe\xfd\xe3\x81}\xb1\x86\x08D'
p2209
ssS'_usr_local_lib_python2_7_dist-packages_django_contrib_auth_apps'
p2210
(dp2211
g6
(dp2212
g8
S'_usr_local_lib_python2_7_dist-packages_django_contrib_auth_apps.html'
p2213
sg10
S'/usr/local/lib/python2.7/dist-packages/django/contrib/auth/apps'
p2214
sg12
g13
(g14
g15
NtRp2215
(dp2216
g18
I1
sg19
I0
sg20
I9
sg21
I0
sg22
I0
sg23
I0
sg24
I0
sbssg25
S'\x15\xf84\x94\xb2v\xc6!\x06\x96a\xf4\x86$\xd8N'
p2217
ssS'_usr_local_lib_python2_7_dist-packages_django_contrib_admin_utils'
p2218
(dp2219
g6
(dp2220
g8
S'_usr_local_lib_python2_7_dist-packages_django_contrib_admin_utils.html'
p2221
sg10
S'/usr/local/lib/python2.7/dist-packages/django/contrib/admin/utils'
p2222
sg12
g13
(g14
g15
NtRp2223
(dp2224
g18
I1
sg19
I0
sg20
I290
sg21
I0
sg22
I0
sg23
I245
sg24
I0
sbssg25
S'\xd0v\x07\xe1U9\xbdB\x05FHv\xac\x9f\x9e\x8d'
p2225
ssS'_usr_local_lib_python2_7_dist-packages_debug_toolbar_panels_cache'
p2226
(dp2227
g6
(dp2228
g8
S'_usr_local_lib_python2_7_dist-packages_debug_toolbar_panels_cache.html'
p2229
sg10
S'/usr/local/lib/python2.7/dist-packages/debug_toolbar/panels/cache'
p2230
sg12
g13
(g14
g15
NtRp2231
(dp2232
g18
I1
sg19
I0
sg20
I108
sg21
I0
sg22
I0
sg23
I60
sg24
I0
sbssg25
S'\xdcB\xe4,v\x0exRk\x933\xde\xefz\xf9\xd5'
p2233
ssS'_usr_local_lib_python2_7_dist-packages_django_contrib_admin_filters'
p2234
(dp2235
g6
(dp2236
g8
S'_usr_local_lib_python2_7_dist-packages_django_contrib_admin_filters.html'
p2237
sg10
S'/usr/local/lib/python2.7/dist-packages/django/contrib/admin/filters'
p2238
sg12
g13
(g14
g15
NtRp2239
(dp2240
g18
I1
sg19
I0
sg20
I188
sg21
I0
sg22
I0
sg23
I127
sg24
I0
sbssg25
S'\x17\x97\x84j\xefaf\xd4#\xca\xce\xde\xc2\x13\xd6C'
p2241
ssS'_usr_local_lib_python2_7_dist-packages_django_db_models_fields_subclassing'
p2242
(dp2243
g6
(dp2244
g8
S'_usr_local_lib_python2_7_dist-packages_django_db_models_fields_subclassing.html'
p2245
sg10
S'/usr/local/lib/python2.7/dist-packages/django/db/models/fields/subclassing'
p2246
sg12
g13
(g14
g15
NtRp2247
(dp2248
g18
I1
sg19
I0
sg20
I21
sg21
I0
sg22
I0
sg23
I14
sg24
I0
sbssg25
S"'\xde\xec\xb2\xaf\xf0\xfd\x9c.|\xf2\xe2\x8aR\x14\x94"
p2249
ssS'apps_product_migrations_0001_initial'
p2250
(dp2251
g6
(dp2252
g8
S'apps_product_migrations_0001_initial.html'
p2253
sg10
S'apps/product/migrations/0001_initial'
p2254
sg12
g13
(g14
g15
NtRp2255
(dp2256
g18
I1
sg19
I0
sg20
I6
sg21
I0
sg22
I0
sg23
I0
sg24
I0
sbssg25
S'\x0bJ\xf1\x10\xa1p\xc2\x0e\x80t\x1e}\x8ab\xdc\xe9'
p2257
ssS'_usr_local_lib_python2_7_dist-packages_imagekit_conf'
p2258
(dp2259
g6
(dp2260
g8
S'_usr_local_lib_python2_7_dist-packages_imagekit_conf.html'
p2261
sg10
S'/usr/local/lib/python2.7/dist-packages/imagekit/conf'
p2262
sg12
g13
(g14
g15
NtRp2263
(dp2264
g18
I1
sg19
I0
sg20
I33
sg21
I0
sg22
I0
sg23
I7
sg24
I0
sbssg25
S'?\xf2\xcd\xdbN\xad\xd9#\xcb\xe7A\xc0\x15O\xcd\xe3'
p2265
ssS'_usr_local_lib_python2_7_dist-packages_django_db_models_sql_where'
p2266
(dp2267
g6
(dp2268
g8
S'_usr_local_lib_python2_7_dist-packages_django_db_models_sql_where.html'
p2269
sg10
S'/usr/local/lib/python2.7/dist-packages/django/db/models/sql/where'
p2270
sg12
g13
(g14
g15
NtRp2271
(dp2272
g18
I1
sg19
I0
sg20
I236
sg21
I0
sg22
I0
sg23
I153
sg24
I0
sbssg25
S'\xc0\x85"@0\x97\xfd;GU\xc4~bi\t%'
p2273
ssS'_usr_local_lib_python2_7_dist-packages_django_template_loaders_cached'
p2274
(dp2275
g6
(dp2276
g8
S'_usr_local_lib_python2_7_dist-packages_django_template_loaders_cached.html'
p2277
sg10
S'/usr/local/lib/python2.7/dist-packages/django/template/loaders/cached'
p2278
sg12
g13
(g14
g15
NtRp2279
(dp2280
g18
I1
sg19
I0
sg20
I57
sg21
I0
sg22
I0
sg23
I45
sg24
I0
sbssg25
S'\xb6\xeb\xd6G\xbc\xd5\xc2\x19\x9f\xca\xaa\xd9M\x12\xc5\x1e'
p2281
ssS'_usr_local_lib_python2_7_dist-packages_django_db_models_fields_proxy'
p2282
(dp2283
g6
(dp2284
g8
S'_usr_local_lib_python2_7_dist-packages_django_db_models_fields_proxy.html'
p2285
sg10
S'/usr/local/lib/python2.7/dist-packages/django/db/models/fields/proxy'
p2286
sg12
g13
(g14
g15
NtRp2287
(dp2288
g18
I1
sg19
I0
sg20
I10
sg21
I0
sg22
I0
sg23
I6
sg24
I0
sbssg25
S'A\xd5\xd6O(Iu\xb8P\xd7\xdbG]z\xe2x'
p2289
ssS'_usr_local_lib_python2_7_dist-packages_django_contrib_messages_storage_cookie'
p2290
(dp2291
g6
(dp2292
g8
S'_usr_local_lib_python2_7_dist-packages_django_contrib_messages_storage_cookie.html'
p2293
sg10
S'/usr/local/lib/python2.7/dist-packages/django/contrib/messages/storage/cookie'
p2294
sg12
g13
(g14
g15
NtRp2295
(dp2296
g18
I1
sg19
I0
sg20
I83
sg21
I0
sg22
I0
sg23
I60
sg24
I0
sbssg25
S'\xde&\xd8xX\xfds\x95\xea\xe8D\xd5\xf5z\xfb\\'
p2297
ssS'apps_product_tests'
p2298
(dp2299
g6
(dp2300
g8
S'apps_product_tests.html'
p2301
sg10
S'apps/product/tests'
p2302
sg12
g13
(g14
g15
NtRp2303
(dp2304
g18
I1
sg19
I0
sg20
I1
sg21
I0
sg22
I0
sg23
I0
sg24
I0
sbssg25
S'\x18\xa2\xf7\x81\x94\xb4%\xa4\xfaT\xb8\x84>\xb2\xf3b'
p2305
ssS'_usr_local_lib_python2_7_dist-packages_django_db_backends_sqlite3_client'
p2306
(dp2307
g6
(dp2308
g8
S'_usr_local_lib_python2_7_dist-packages_django_db_backends_sqlite3_client.html'
p2309
sg10
S'/usr/local/lib/python2.7/dist-packages/django/db/backends/sqlite3/client'
p2310
sg12
g13
(g14
g15
NtRp2311
(dp2312
g18
I1
sg19
I0
sg20
I10
sg21
I0
sg22
I0
sg23
I4
sg24
I0
sbssg25
S'\x15\x1e\xa2\xcdZ\x13\xadM\x83w5Bk@\xda\x1d'
p2313
ssS'_usr_local_lib_python2_7_dist-packages_django_db_models_query'
p2314
(dp2315
g6
(dp2316
g8
S'_usr_local_lib_python2_7_dist-packages_django_db_models_query.html'
p2317
sg10
S'/usr/local/lib/python2.7/dist-packages/django/db/models/query'
p2318
sg12
g13
(g14
g15
NtRp2319
(dp2320
g18
I1
sg19
I0
sg20
I992
sg21
I0
sg22
I0
sg23
I587
sg24
I0
sbssg25
S'&\xe6\x04\xa5\x9b\x0fb\xd8\xcc\x08;\x89x&\x90\xef'
p2321
ssS'apps_home_migrations___init__'
p2322
(dp2323
g6
(dp2324
g8
S'apps_home_migrations___init__.html'
p2325
sg10
S'apps/home/migrations/__init__'
p2326
sg12
g13
(g14
g15
NtRp2327
(dp2328
g18
I1
sg19
I0
sg20
I0
sg21
I0
sg22
I0
sg23
I0
sg24
I0
sbssg25
S'\xca\xf5\x9f\x7f\x88\xdfa\x831|T\x1d\xbc}\xa5v'
p2329
ssS'_usr_local_lib_python2_7_dist-packages_django_contrib_auth_hashers'
p2330
(dp2331
g6
(dp2332
g8
S'_usr_local_lib_python2_7_dist-packages_django_contrib_auth_hashers.html'
p2333
sg10
S'/usr/local/lib/python2.7/dist-packages/django/contrib/auth/hashers'
p2334
sg12
g13
(g14
g15
NtRp2335
(dp2336
g18
I1
sg19
I0
sg20
I247
sg21
I0
sg22
I0
sg23
I133
sg24
I0
sbssg25
S'\xca=\x95wSFQ!k\x9b\xe0\xe7\xd89o7'
p2337
ssS'_usr_local_lib_python2_7_dist-packages_django_db_migrations_state'
p2338
(dp2339
g6
(dp2340
g8
S'_usr_local_lib_python2_7_dist-packages_django_db_migrations_state.html'
p2341
sg10
S'/usr/local/lib/python2.7/dist-packages/django/db/migrations/state'
p2342
sg12
g13
(g14
g15
NtRp2343
(dp2344
g18
I1
sg19
I0
sg20
I180
sg21
I0
sg22
I0
sg23
I96
sg24
I0
sbssg25
S'\x1e\x98\x1a\xc5S \x85m\xb6\x83\x8b\xff\xcd\x1d\x8bL'
p2345
ssS'_usr_local_lib_python2_7_dist-packages_django_core_checks_compatibility_django_1_6_0'
p2346
(dp2347
g6
(dp2348
g8
S'_usr_local_lib_python2_7_dist-packages_django_core_checks_compatibility_django_1_6_0.html'
p2349
sg10
S'/usr/local/lib/python2.7/dist-packages/django/core/checks/compatibility/django_1_6_0'
p2350
sg12
g13
(g14
g15
NtRp2351
(dp2352
g18
I1
sg19
I0
sg20
I36
sg21
I0
sg22
I0
sg23
I8
sg24
I0
sbssg25
S'K:\x8c3\x9e\xc2\x0cu\xc6Q\x15\xdbdO\x00\xcb'
p2353
ssS'_usr_local_lib_python2_7_dist-packages_django_core_management___init__'
p2354
(dp2355
g6
(dp2356
g8
S'_usr_local_lib_python2_7_dist-packages_django_core_management___init__.html'
p2357
sg10
S'/usr/local/lib/python2.7/dist-packages/django/core/management/__init__'
p2358
sg12
g13
(g14
g15
NtRp2359
(dp2360
g18
I1
sg19
I0
sg20
I173
sg21
I0
sg22
I0
sg23
I79
sg24
I0
sbssg25
S' \xcc\xcd\xf2\xacc\x93\x90\xa5"\xa9b\xe1vO\x7f'
p2361
ssS'_usr_local_lib_python2_7_dist-packages_debug_toolbar_panels_headers'
p2362
(dp2363
g6
(dp2364
g8
S'_usr_local_lib_python2_7_dist-packages_debug_toolbar_panels_headers.html'
p2365
sg10
S'/usr/local/lib/python2.7/dist-packages/debug_toolbar/panels/headers'
p2366
sg12
g13
(g14
g15
NtRp2367
(dp2368
g18
I1
sg19
I0
sg20
I25
sg21
I0
sg22
I0
sg23
I12
sg24
I0
sbssg25
S'\x1b(\xb1\x96\x00\x00\xca\x9eR\xd5\x08C\x04\x08\xe4\xe3'
p2369
ssS'_usr_local_lib_python2_7_dist-packages_django_contrib_sessions_exceptions'
p2370
(dp2371
g6
(dp2372
g8
S'_usr_local_lib_python2_7_dist-packages_django_contrib_sessions_exceptions.html'
p2373
sg10
S'/usr/local/lib/python2.7/dist-packages/django/contrib/sessions/exceptions'
p2374
sg12
g13
(g14
g15
NtRp2375
(dp2376
g18
I1
sg19
I0
sg20
I5
sg21
I0
sg22
I0
sg23
I0
sg24
I0
sbssg25
S'\x95\x04\x01\x10c\xc83\xdaB\xb8qa\xe6[c\xd8'
p2377
ssS'_usr_local_lib_python2_7_dist-packages_django_views_generic_base'
p2378
(dp2379
g6
(dp2380
g8
S'_usr_local_lib_python2_7_dist-packages_django_views_generic_base.html'
p2381
sg10
S'/usr/local/lib/python2.7/dist-packages/django/views/generic/base'
p2382
sg12
g13
(g14
g15
NtRp2383
(dp2384
g18
I1
sg19
I0
sg20
I105
sg21
I0
sg22
I0
sg23
I57
sg24
I0
sbssg25
S's\x83\x808\xd9$K:\xd0\t\x8f\xb2m\xd4\xa2\x17'
p2385
ssS'_usr_local_lib_python2_7_dist-packages_django_views_decorators___init__'
p2386
(dp2387
g6
(dp2388
g8
S'_usr_local_lib_python2_7_dist-packages_django_views_decorators___init__.html'
p2389
sg10
S'/usr/local/lib/python2.7/dist-packages/django/views/decorators/__init__'
p2390
sg12
g13
(g14
g15
NtRp2391
(dp2392
g18
I1
sg19
I0
sg20
I0
sg21
I0
sg22
I0
sg23
I0
sg24
I0
sbssg25
S'\xca\xf5\x9f\x7f\x88\xdfa\x831|T\x1d\xbc}\xa5v'
p2393
ssS'_usr_local_lib_python2_7_dist-packages_django_db_migrations_loader'
p2394
(dp2395
g6
(dp2396
g8
S'_usr_local_lib_python2_7_dist-packages_django_db_migrations_loader.html'
p2397
sg10
S'/usr/local/lib/python2.7/dist-packages/django/db/migrations/loader'
p2398
sg12
g13
(g14
g15
NtRp2399
(dp2400
g18
I1
sg19
I0
sg20
I165
sg21
I0
sg22
I0
sg23
I54
sg24
I0
sbssg25
S'FN\x8b\x08\xfa]\xd5\xf3\xca,\x0f\x82\xbc\xf8\x98z'
p2401
ssS'_usr_local_lib_python2_7_dist-packages_django_core_cache_backends_db'
p2402
(dp2403
g6
(dp2404
g8
S'_usr_local_lib_python2_7_dist-packages_django_core_cache_backends_db.html'
p2405
sg10
S'/usr/local/lib/python2.7/dist-packages/django/core/cache/backends/db'
p2406
sg12
g13
(g14
g15
NtRp2407
(dp2408
g18
I1
sg19
I0
sg20
I134
sg21
I0
sg22
I0
sg23
I109
sg24
I0
sbssg25
S'\xe8\xc5\x11e\x92\x11\xc1&\xa7\xbaj=\x9c\x10\xf8\xc9'
p2409
ssS'_usr_local_lib_python2_7_dist-packages_sqlparse_exceptions'
p2410
(dp2411
g6
(dp2412
g8
S'_usr_local_lib_python2_7_dist-packages_sqlparse_exceptions.html'
p2413
sg10
S'/usr/local/lib/python2.7/dist-packages/sqlparse/exceptions'
p2414
sg12
g13
(g14
g15
NtRp2415
(dp2416
g18
I1
sg19
I0
sg20
I2
sg21
I0
sg22
I0
sg23
I0
sg24
I0
sbssg25
S'\xd9\xd4\xf0\t\x1e\x1b\x0c\x94\x93\x17e\xdb\xd8\x0bB\r'
p2417
ssS'_usr_local_lib_python2_7_dist-packages_django_core_signals'
p2418
(dp2419
g6
(dp2420
g8
S'_usr_local_lib_python2_7_dist-packages_django_core_signals.html'
p2421
sg10
S'/usr/local/lib/python2.7/dist-packages/django/core/signals'
p2422
sg12
g13
(g14
g15
NtRp2423
(dp2424
g18
I1
sg19
I0
sg20
I4
sg21
I0
sg22
I0
sg23
I0
sg24
I0
sbssg25
S'\x11)\xaf\xa7<%!O_\xa5\xae\x81Dl\xa7C'
p2425
ssS'_usr_local_lib_python2_7_dist-packages_django_views___init__'
p2426
(dp2427
g6
(dp2428
g8
S'_usr_local_lib_python2_7_dist-packages_django_views___init__.html'
p2429
sg10
S'/usr/local/lib/python2.7/dist-packages/django/views/__init__'
p2430
sg12
g13
(g14
g15
NtRp2431
(dp2432
g18
I1
sg19
I0
sg20
I0
sg21
I0
sg22
I0
sg23
I0
sg24
I0
sbssg25
S'\xca\xf5\x9f\x7f\x88\xdfa\x831|T\x1d\xbc}\xa5v'
p2433
ssS'_usr_local_lib_python2_7_dist-packages_django_contrib_messages_apps'
p2434
(dp2435
g6
(dp2436
g8
S'_usr_local_lib_python2_7_dist-packages_django_contrib_messages_apps.html'
p2437
sg10
S'/usr/local/lib/python2.7/dist-packages/django/contrib/messages/apps'
p2438
sg12
g13
(g14
g15
NtRp2439
(dp2440
g18
I1
sg19
I0
sg20
I5
sg21
I0
sg22
I0
sg23
I0
sg24
I0
sbssg25
S')m\xd9\x94\xbc0\xa5i~\xfc\x8eK\xe1{0\x94'
p2441
ssS'_usr_local_lib_python2_7_dist-packages_django_utils_datastructures'
p2442
(dp2443
g6
(dp2444
g8
S'_usr_local_lib_python2_7_dist-packages_django_utils_datastructures.html'
p2445
sg10
S'/usr/local/lib/python2.7/dist-packages/django/utils/datastructures'
p2446
sg12
g13
(g14
g15
NtRp2447
(dp2448
g18
I1
sg19
I0
sg20
I317
sg21
I0
sg22
I0
sg23
I177
sg24
I0
sbssg25
S'\xab\x94\xb6\xc5\x92\xde\x05$\x9e\xdc\x0c@\xb8\x98Zd'
p2449
ssS'_usr_local_lib_python2_7_dist-packages_django_contrib_sessions_backends_base'
p2450
(dp2451
g6
(dp2452
g8
S'_usr_local_lib_python2_7_dist-packages_django_contrib_sessions_backends_base.html'
p2453
sg10
S'/usr/local/lib/python2.7/dist-packages/django/contrib/sessions/backends/base'
p2454
sg12
g13
(g14
g15
NtRp2455
(dp2456
g18
I1
sg19
I0
sg20
I181
sg21
I0
sg22
I0
sg23
I106
sg24
I0
sbssg25
S'-\x95\x14\xbe\x19+\xbbP\x9a\xac\x1b\x85\xba\xc3\x93B'
p2457
ssS'_usr_local_lib_python2_7_dist-packages_django_core_checks_compatibility___init__'
p2458
(dp2459
g6
(dp2460
g8
S'_usr_local_lib_python2_7_dist-packages_django_core_checks_compatibility___init__.html'
p2461
sg10
S'/usr/local/lib/python2.7/dist-packages/django/core/checks/compatibility/__init__'
p2462
sg12
g13
(g14
g15
NtRp2463
(dp2464
g18
I1
sg19
I0
sg20
I0
sg21
I0
sg22
I0
sg23
I0
sg24
I0
sbssg25
S'\xca\xf5\x9f\x7f\x88\xdfa\x831|T\x1d\xbc}\xa5v'
p2465
ssS'_usr_local_lib_python2_7_dist-packages_django_core_serializers_pyyaml'
p2466
(dp2467
g6
(dp2468
g8
S'_usr_local_lib_python2_7_dist-packages_django_core_serializers_pyyaml.html'
p2469
sg10
S'/usr/local/lib/python2.7/dist-packages/django/core/serializers/pyyaml'
p2470
sg12
g13
(g14
g15
NtRp2471
(dp2472
g18
I1
sg19
I0
sg20
I41
sg21
I0
sg22
I0
sg23
I39
sg24
I0
sbssg25
S'\x1d\xf9X\x9c<\n\xa9Q\x18\xd4\xe2\xdfDF\x8e\xdf'
p2473
ssS'apps_product_urls'
p2474
(dp2475
g6
(dp2476
g8
S'apps_product_urls.html'
p2477
sg10
S'apps/product/urls'
p2478
sg12
g13
(g14
g15
NtRp2479
(dp2480
g18
I1
sg19
I0
sg20
I5
sg21
I0
sg22
I0
sg23
I0
sg24
I0
sbssg25
S"g?\x85\x07\xa0\x15'~\xa0\xcf\xcd\\\x1b6;\x95"
p2481
ssS'_usr_local_lib_python2_7_dist-packages_django_db_migrations_optimizer'
p2482
(dp2483
g6
(dp2484
g8
S'_usr_local_lib_python2_7_dist-packages_django_db_migrations_optimizer.html'
p2485
sg10
S'/usr/local/lib/python2.7/dist-packages/django/db/migrations/optimizer'
p2486
sg12
g13
(g14
g15
NtRp2487
(dp2488
g18
I1
sg19
I0
sg20
I98
sg21
I0
sg22
I0
sg23
I75
sg24
I0
sbssg25
S'\x0c\xcdU\x02\x9f\xf6\xc3\xaa[6@g\xc8\xaa\xc4F'
p2489
ssS'_usr_local_lib_python2_7_dist-packages_django_conf_urls_static'
p2490
(dp2491
g6
(dp2492
g8
S'_usr_local_lib_python2_7_dist-packages_django_conf_urls_static.html'
p2493
sg10
S'/usr/local/lib/python2.7/dist-packages/django/conf/urls/static'
p2494
sg12
g13
(g14
g15
NtRp2495
(dp2496
g18
I1
sg19
I0
sg20
I10
sg21
I0
sg22
I0
sg23
I2
sg24
I0
sbssg25
S'\xb2A\x1b\x0f\x1e\xa2\xeb\xd1*\x81\x18\x07\xf9]\xcd\xef'
p2497
ssS'_usr_local_lib_python2_7_dist-packages_django_db_migrations_operations_base'
p2498
(dp2499
g6
(dp2500
g8
S'_usr_local_lib_python2_7_dist-packages_django_db_migrations_operations_base.html'
p2501
sg10
S'/usr/local/lib/python2.7/dist-packages/django/db/migrations/operations/base'
p2502
sg12
g13
(g14
g15
NtRp2503
(dp2504
g18
I1
sg19
I0
sg20
I33
sg21
I0
sg22
I0
sg23
I10
sg24
I0
sbssg25
S'\xf5\\\xbf\xe7c\xa5\xf3-\xf8\x1e\x93\xf9\xed\xbe\xb1.'
p2505
ssS'_usr_local_lib_python2_7_dist-packages_django_http_response'
p2506
(dp2507
g6
(dp2508
g8
S'_usr_local_lib_python2_7_dist-packages_django_http_response.html'
p2509
sg10
S'/usr/local/lib/python2.7/dist-packages/django/http/response'
p2510
sg12
g13
(g14
g15
NtRp2511
(dp2512
g18
I1
sg19
I0
sg20
I225
sg21
I0
sg22
I0
sg23
I83
sg24
I0
sbssg25
S'{\xb0\xac\xa6\xa25H\xb5\xb4\x91\x01\x93WD\xe6\xed'
p2513
ssS'_usr_local_lib_python2_7_dist-packages_django_db_models___init__'
p2514
(dp2515
g6
(dp2516
g8
S'_usr_local_lib_python2_7_dist-packages_django_db_models___init__.html'
p2517
sg10
S'/usr/local/lib/python2.7/dist-packages/django/db/models/__init__'
p2518
sg12
g13
(g14
g15
NtRp2519
(dp2520
g18
I1
sg19
I0
sg20
I35
sg21
I0
sg22
I0
sg23
I8
sg24
I0
sbssg25
S'\xea}(\x15$\x94\xbc\xb6\xa3tk (\xbbm\x9e'
p2521
ssS'_usr_local_lib_python2_7_dist-packages_debug_toolbar_toolbar'
p2522
(dp2523
g6
(dp2524
g8
S'_usr_local_lib_python2_7_dist-packages_debug_toolbar_toolbar.html'
p2525
sg10
S'/usr/local/lib/python2.7/dist-packages/debug_toolbar/toolbar'
p2526
sg12
g13
(g14
g15
NtRp2527
(dp2528
g18
I1
sg19
I0
sg20
I94
sg21
I0
sg22
I0
sg23
I47
sg24
I0
sbssg25
S"\xab\xe0\xa2\xb3\xe3\xd4'}\x8cU\x9c/[MJ\n"
p2529
ssS'_usr_local_lib_python2_7_dist-packages_django_db___init__'
p2530
(dp2531
g6
(dp2532
g8
S'_usr_local_lib_python2_7_dist-packages_django_db___init__.html'
p2533
sg10
S'/usr/local/lib/python2.7/dist-packages/django/db/__init__'
p2534
sg12
g13
(g14
g15
NtRp2535
(dp2536
g18
I1
sg19
I0
sg20
I50
sg21
I0
sg22
I0
sg23
I20
sg24
I0
sbssg25
S'\xdcxq\xfaN\xb1\xd3\xffaa\xddu\x19\xc0\xa2\x9d'
p2537
ssS'_usr_local_lib_python2_7_dist-packages_debug_toolbar_panels_request'
p2538
(dp2539
g6
(dp2540
g8
S'_usr_local_lib_python2_7_dist-packages_debug_toolbar_panels_request.html'
p2541
sg10
S'/usr/local/lib/python2.7/dist-packages/debug_toolbar/panels/request'
p2542
sg12
g13
(g14
g15
NtRp2543
(dp2544
g18
I1
sg19
I0
sg20
I28
sg21
I0
sg22
I0
sg23
I16
sg24
I0
sbssg25
S'\x9c\xc5\x83\xd0\xb70_Q*`\x03\x03]\xc8K\x84'
p2545
ssS'_usr_local_lib_python2_7_dist-packages_django_contrib_admin_apps'
p2546
(dp2547
g6
(dp2548
g8
S'_usr_local_lib_python2_7_dist-packages_django_contrib_admin_apps.html'
p2549
sg10
S'/usr/local/lib/python2.7/dist-packages/django/contrib/admin/apps'
p2550
sg12
g13
(g14
g15
NtRp2551
(dp2552
g18
I1
sg19
I0
sg20
I13
sg21
I0
sg22
I0
sg23
I0
sg24
I0
sbssg25
S'\x07\x9e\x9c\x1an1\xd6jl\x9cwTz\x19/\xf2'
p2553
ssS'_usr_local_lib_python2_7_dist-packages_django_contrib_messages_middleware'
p2554
(dp2555
g6
(dp2556
g8
S'_usr_local_lib_python2_7_dist-packages_django_contrib_messages_middleware.html'
p2557
sg10
S'/usr/local/lib/python2.7/dist-packages/django/contrib/messages/middleware'
p2558
sg12
g13
(g14
g15
NtRp2559
(dp2560
g18
I1
sg19
I0
sg20
I11
sg21
I0
sg22
I0
sg23
I1
sg24
I0
sbssg25
S'\xb3^Gb\x9c\x16p\xcf\xc1\x94J\x89,\xf2\x06\xfc'
p2561
ssS'_usr_local_lib_python2_7_dist-packages_django_contrib_auth_admin'
p2562
(dp2563
g6
(dp2564
g8
S'_usr_local_lib_python2_7_dist-packages_django_contrib_auth_admin.html'
p2565
sg10
S'/usr/local/lib/python2.7/dist-packages/django/contrib/auth/admin'
p2566
sg12
g13
(g14
g15
NtRp2567
(dp2568
g18
I1
sg19
I0
sg20
I99
sg21
I0
sg22
I0
sg23
I49
sg24
I0
sbssg25
S'\xa8\xb8p\xe8\xad\xf3%r\xedXf\x025eO\xde'
p2569
ssS'apps_home_views'
p2570
(dp2571
g6
(dp2572
g8
S'apps_home_views.html'
p2573
sg10
S'apps/home/views'
p2574
sg12
g13
(g14
g15
NtRp2575
(dp2576
g18
I1
sg19
I0
sg20
I26
sg21
I0
sg22
I0
sg23
I4
sg24
I0
sbssg25
S'c\xc6\x90\xed\xbc\xc8"\x029\xfa\x93V\xfc\x1f/\x0f'
p2577
ssS'_usr_local_lib_python2_7_dist-packages_django_contrib_admin_widgets'
p2578
(dp2579
g6
(dp2580
g8
S'_usr_local_lib_python2_7_dist-packages_django_contrib_admin_widgets.html'
p2581
sg10
S'/usr/local/lib/python2.7/dist-packages/django/contrib/admin/widgets'
p2582
sg12
g13
(g14
g15
NtRp2583
(dp2584
g18
I1
sg19
I0
sg20
I224
sg21
I0
sg22
I0
sg23
I154
sg24
I0
sbssg25
S"[\xef\xb6\x03\xd8<\xdbB'~{\xf0\xe7v]y"
p2585
ssS'_usr_local_lib_python2_7_dist-packages_django_db_backends_signals'
p2586
(dp2587
g6
(dp2588
g8
S'_usr_local_lib_python2_7_dist-packages_django_db_backends_signals.html'
p2589
sg10
S'/usr/local/lib/python2.7/dist-packages/django/db/backends/signals'
p2590
sg12
g13
(g14
g15
NtRp2591
(dp2592
g18
I1
sg19
I0
sg20
I2
sg21
I0
sg22
I0
sg23
I0
sg24
I0
sbssg25
S'\xd0\x7fA\xfb\xdfoE\xbc.\x17\x18\xd7\xa5\xbf\x04\xe4'
p2593
ssS'_usr_local_lib_python2_7_dist-packages_django_core_files_uploadedfile'
p2594
(dp2595
g6
(dp2596
g8
S'_usr_local_lib_python2_7_dist-packages_django_core_files_uploadedfile.html'
p2597
sg10
S'/usr/local/lib/python2.7/dist-packages/django/core/files/uploadedfile'
p2598
sg12
g13
(g14
g15
NtRp2599
(dp2600
g18
I1
sg19
I0
sg20
I60
sg21
I0
sg22
I0
sg23
I19
sg24
I0
sbssg25
S'/\xce\xfb\xa8\xeb\xf5\xd72\x1eK\x05\xe6\x07\x05\x0e\xc2'
p2601
ssS'_usr_local_lib_python2_7_dist-packages_django_utils_itercompat'
p2602
(dp2603
g6
(dp2604
g8
S'_usr_local_lib_python2_7_dist-packages_django_utils_itercompat.html'
p2605
sg10
S'/usr/local/lib/python2.7/dist-packages/django/utils/itercompat'
p2606
sg12
g13
(g14
g15
NtRp2607
(dp2608
g18
I1
sg19
I0
sg20
I6
sg21
I0
sg22
I0
sg23
I2
sg24
I0
sbssg25
S'3\xdb\xd1\x8c\x87z\xc1\tg?Z\xd6\x137+P'
p2609
ssS'_usr_local_lib_python2_7_dist-packages_django_db_models_lookups'
p2610
(dp2611
g6
(dp2612
g8
S'_usr_local_lib_python2_7_dist-packages_django_db_models_lookups.html'
p2613
sg10
S'/usr/local/lib/python2.7/dist-packages/django/db/models/lookups'
p2614
sg12
g13
(g14
g15
NtRp2615
(dp2616
g18
I1
sg19
I0
sg20
I254
sg21
I0
sg22
I0
sg23
I85
sg24
I0
sbssg25
S'\xd88\xc0\xe5\x00Mcm\xed\xb2\x08\x9a{\x96PH'
p2617
ssS'_usr_local_lib_python2_7_dist-packages_django_contrib_auth_checks'
p2618
(dp2619
g6
(dp2620
g8
S'_usr_local_lib_python2_7_dist-packages_django_contrib_auth_checks.html'
p2621
sg10
S'/usr/local/lib/python2.7/dist-packages/django/contrib/auth/checks'
p2622
sg12
g13
(g14
g15
NtRp2623
(dp2624
g18
I1
sg19
I0
sg20
I16
sg21
I0
sg22
I0
sg23
I5
sg24
I0
sbssg25
S'\\\xef\xc4\xa3$\xb2gNa\xba\xd0\x03\xa0\x87i\x84'
p2625
ssS'_usr_local_lib_python2_7_dist-packages_django_templatetags___init__'
p2626
(dp2627
g6
(dp2628
g8
S'_usr_local_lib_python2_7_dist-packages_django_templatetags___init__.html'
p2629
sg10
S'/usr/local/lib/python2.7/dist-packages/django/templatetags/__init__'
p2630
sg12
g13
(g14
g15
NtRp2631
(dp2632
g18
I1
sg19
I0
sg20
I0
sg21
I0
sg22
I0
sg23
I0
sg24
I0
sbssg25
S'\xca\xf5\x9f\x7f\x88\xdfa\x831|T\x1d\xbc}\xa5v'
p2633
ssS'_usr_local_lib_python2_7_dist-packages_django_middleware_http'
p2634
(dp2635
g6
(dp2636
g8
S'_usr_local_lib_python2_7_dist-packages_django_middleware_http.html'
p2637
sg10
S'/usr/local/lib/python2.7/dist-packages/django/middleware/http'
p2638
sg12
g13
(g14
g15
NtRp2639
(dp2640
g18
I1
sg19
I0
sg20
I19
sg21
I0
sg22
I0
sg23
I16
sg24
I0
sbssg25
S'\xf8zn\x9dKuu\x12\x94\xac\xfd\xcboG\x90T'
p2641
ssS'_usr_local_lib_python2_7_dist-packages_django_db_backends___init__'
p2642
(dp2643
g6
(dp2644
g8
S'_usr_local_lib_python2_7_dist-packages_django_db_backends___init__.html'
p2645
sg10
S'/usr/local/lib/python2.7/dist-packages/django/db/backends/__init__'
p2646
sg12
g13
(g14
g15
NtRp2647
(dp2648
g18
I1
sg19
I0
sg20
I609
sg21
I0
sg22
I0
sg23
I251
sg24
I0
sbssg25
S'q4\xfe\x15M!\xc2\x0c\xbbO\xab\x8a\x1e\xb3\x1a\x15'
p2649
ssS'_usr_local_lib_python2_7_dist-packages_django_middleware_cache'
p2650
(dp2651
g6
(dp2652
g8
S'_usr_local_lib_python2_7_dist-packages_django_middleware_cache.html'
p2653
sg10
S'/usr/local/lib/python2.7/dist-packages/django/middleware/cache'
p2654
sg12
g13
(g14
g15
NtRp2655
(dp2656
g18
I1
sg19
I0
sg20
I92
sg21
I0
sg22
I0
sg23
I77
sg24
I0
sbssg25
S'G,\xa7Kn\x1ff\x91\xe2y\x8c\xbbey\xa5~'
p2657
ssS'_usr_local_lib_python2_7_dist-packages_django_contrib_messages_constants'
p2658
(dp2659
g6
(dp2660
g8
S'_usr_local_lib_python2_7_dist-packages_django_contrib_messages_constants.html'
p2661
sg10
S'/usr/local/lib/python2.7/dist-packages/django/contrib/messages/constants'
p2662
sg12
g13
(g14
g15
NtRp2663
(dp2664
g18
I1
sg19
I0
sg20
I7
sg21
I0
sg22
I0
sg23
I0
sg24
I0
sbssg25
S'\xc7\x16o\xf2\xe8\xb4L\xe1\xe4[\xa2r\x0bS;\xed'
p2665
ssS'_usr_local_lib_python2_7_dist-packages_django_utils_formats'
p2666
(dp2667
g6
(dp2668
g8
S'_usr_local_lib_python2_7_dist-packages_django_utils_formats.html'
p2669
sg10
S'/usr/local/lib/python2.7/dist-packages/django/utils/formats'
p2670
sg12
g13
(g14
g15
NtRp2671
(dp2672
g18
I1
sg19
I0
sg20
I118
sg21
I0
sg22
I0
sg23
I79
sg24
I0
sbssg25
S'A\x83\x99P\xee\xdd\xcbk\xd0\xa6+$@\x05\x04E'
p2673
ssS'_usr_local_lib_python2_7_dist-packages_django_db_models_manager'
p2674
(dp2675
g6
(dp2676
g8
S'_usr_local_lib_python2_7_dist-packages_django_db_models_manager.html'
p2677
sg10
S'/usr/local/lib/python2.7/dist-packages/django/db/models/manager'
p2678
sg12
g13
(g14
g15
NtRp2679
(dp2680
g18
I1
sg19
I0
sg20
I137
sg21
I0
sg22
I0
sg23
I13
sg24
I0
sbssg25
S'\xf9\x10\xaf\x044\xbd~\xfc\xb2\xc4\xe7\x0ea7\xca\xd9'
p2681
ssS'apps_product_cart'
p2682
(dp2683
g6
(dp2684
g8
S'apps_product_cart.html'
p2685
sg10
S'apps/product/cart'
p2686
sg12
g13
(g14
g15
NtRp2687
(dp2688
g18
I1
sg19
I0
sg20
I77
sg21
I0
sg22
I0
sg23
I54
sg24
I0
sbssg25
S'\x06\xda}\x01)V\r\xc3\xad>\x00\xce\x9f\x19\x8c\xfb'
p2689
ssS'_usr_local_lib_python2_7_dist-packages_django_middleware_common'
p2690
(dp2691
g6
(dp2692
g8
S'_usr_local_lib_python2_7_dist-packages_django_middleware_common.html'
p2693
sg10
S'/usr/local/lib/python2.7/dist-packages/django/middleware/common'
p2694
sg12
g13
(g14
g15
NtRp2695
(dp2696
g18
I1
sg19
I0
sg20
I78
sg21
I0
sg22
I0
sg23
I47
sg24
I0
sbssg25
S'\rw\xad\xeb\xdb\x1b\x99\x98\xc6\xa4\x8b:\x7f;\x03\xe6'
p2697
ssS'_usr_local_lib_python2_7_dist-packages_PIL_TiffImagePlugin'
p2698
(dp2699
g6
(dp2700
g8
S'_usr_local_lib_python2_7_dist-packages_PIL_TiffImagePlugin.html'
p2701
sg10
S'/usr/local/lib/python2.7/dist-packages/PIL/TiffImagePlugin'
p2702
sg12
g13
(g14
g15
NtRp2703
(dp2704
g18
I1
sg19
I0
sg20
I640
sg21
I0
sg22
I0
sg23
I520
sg24
I0
sbssg25
S'\x91\xadY\xc3\xf9\x89\x1c\x90\xc0qk\xbe1\xcea\x1a'
p2705
ssS'_usr_local_lib_python2_7_dist-packages_debug_toolbar_panels___init__'
p2706
(dp2707
g6
(dp2708
g8
S'_usr_local_lib_python2_7_dist-packages_debug_toolbar_panels___init__.html'
p2709
sg10
S'/usr/local/lib/python2.7/dist-packages/debug_toolbar/panels/__init__'
p2710
sg12
g13
(g14
g15
NtRp2711
(dp2712
g18
I1
sg19
I0
sg20
I43
sg21
I0
sg22
I0
sg23
I17
sg24
I0
sbssg25
S'\xc8I4<^n\x1f\x18\x9eDp\xe0"\xa7\xff\xf3'
p2713
ssS'_usr_local_lib_python2_7_dist-packages_django_core_files_storage'
p2714
(dp2715
g6
(dp2716
g8
S'_usr_local_lib_python2_7_dist-packages_django_core_files_storage.html'
p2717
sg10
S'/usr/local/lib/python2.7/dist-packages/django/core/files/storage'
p2718
sg12
g13
(g14
g15
NtRp2719
(dp2720
g18
I1
sg19
I0
sg20
I153
sg21
I0
sg22
I0
sg23
I54
sg24
I0
sbssg25
S'pG\x98o\xdb\xbb~w\x9a\xda\xf2q\xce\xe8\x93!'
p2721
ssS'_usr_local_lib_python2_7_dist-packages_django_utils_ipv6'
p2722
(dp2723
g6
(dp2724
g8
S'_usr_local_lib_python2_7_dist-packages_django_utils_ipv6.html'
p2725
sg10
S'/usr/local/lib/python2.7/dist-packages/django/utils/ipv6'
p2726
sg12
g13
(g14
g15
NtRp2727
(dp2728
g18
I1
sg19
I0
sg20
I108
sg21
I0
sg22
I0
sg23
I99
sg24
I0
sbssg25
S'\xd0\x14\xc1B\x89W\x94A\xbc\x91\x18*\xc66\x11\x05'
p2729
ssS'_usr_local_lib_python2_7_dist-packages_django_db_models_sql_compiler'
p2730
(dp2731
g6
(dp2732
g8
S'_usr_local_lib_python2_7_dist-packages_django_db_models_sql_compiler.html'
p2733
sg10
S'/usr/local/lib/python2.7/dist-packages/django/db/models/sql/compiler'
p2734
sg12
g13
(g14
g15
NtRp2735
(dp2736
g18
I1
sg19
I0
sg20
I703
sg21
I0
sg22
I0
sg23
I337
sg24
I0
sbssg25
S'\xbf\xcd\x9f\x92\xb7\x1c,oi\xfa\xe04E\x15np'
p2737
ssS'_usr_local_lib_python2_7_dist-packages_PIL_ImagePalette'
p2738
(dp2739
g6
(dp2740
g8
S'_usr_local_lib_python2_7_dist-packages_PIL_ImagePalette.html'
p2741
sg10
S'/usr/local/lib/python2.7/dist-packages/PIL/ImagePalette'
p2742
sg12
g13
(g14
g15
NtRp2743
(dp2744
g18
I1
sg19
I0
sg20
I135
sg21
I0
sg22
I0
sg23
I115
sg24
I0
sbssg25
S'\x10\xcdA\xaa\xbeL\x95\x8c\xb6\x86\x8fJ\xf1\xe3\xc7\x13'
p2745
ssS'apps_home_models'
p2746
(dp2747
g6
(dp2748
g8
S'apps_home_models.html'
p2749
sg10
S'apps/home/models'
p2750
sg12
g13
(g14
g15
NtRp2751
(dp2752
g18
I1
sg19
I0
sg20
I131
sg21
I0
sg22
I0
sg23
I15
sg24
I0
sbssg25
S'HI\xd6m(\xc1\xf4\xc3\x08\x18\x84\xf4\x9d^\x9e\xc6'
p2753
ssS'_usr_local_lib_python2_7_dist-packages_imagekit_templatetags___init__'
p2754
(dp2755
g6
(dp2756
g8
S'_usr_local_lib_python2_7_dist-packages_imagekit_templatetags___init__.html'
p2757
sg10
S'/usr/local/lib/python2.7/dist-packages/imagekit/templatetags/__init__'
p2758
sg12
g13
(g14
g15
NtRp2759
(dp2760
g18
I1
sg19
I0
sg20
I0
sg21
I0
sg22
I0
sg23
I0
sg24
I0
sbssg25
S'\xca\xf5\x9f\x7f\x88\xdfa\x831|T\x1d\xbc}\xa5v'
p2761
ssS'_usr_local_lib_python2_7_dist-packages_django_db_models_sql_subqueries'
p2762
(dp2763
g6
(dp2764
g8
S'_usr_local_lib_python2_7_dist-packages_django_db_models_sql_subqueries.html'
p2765
sg10
S'/usr/local/lib/python2.7/dist-packages/django/db/models/sql/subqueries'
p2766
sg12
g13
(g14
g15
NtRp2767
(dp2768
g18
I1
sg19
I0
sg20
I143
sg21
I0
sg22
I0
sg23
I76
sg24
I0
sbssg25
S'\x85T\x83V\xc3\xa1_\xa9ov\xect\x02[\xfe\x17'
p2769
ssS'apps_home_templatetags_product_tags'
p2770
(dp2771
g6
(dp2772
g8
S'apps_home_templatetags_product_tags.html'
p2773
sg10
S'apps/home/templatetags/product_tags'
p2774
sg12
g13
(g14
g15
NtRp2775
(dp2776
g18
I1
sg19
I0
sg20
I14
sg21
I0
sg22
I0
sg23
I3
sg24
I0
sbssg25
S'[\x0b:\xfc=:\xfa;\x80\xcf\x02\xd5f\xe7\xfa:'
p2777
ssS'_usr_local_lib_python2_7_dist-packages_pilkit_lib'
p2778
(dp2779
g6
(dp2780
g8
S'_usr_local_lib_python2_7_dist-packages_pilkit_lib.html'
p2781
sg10
S'/usr/local/lib/python2.7/dist-packages/pilkit/lib'
p2782
sg12
g13
(g14
g15
NtRp2783
(dp2784
g18
I1
sg19
I0
sg20
I28
sg21
I0
sg22
I0
sg23
I22
sg24
I0
sbssg25
S'\xba\xb7\x81\xfaDn\xb0q\xae\xf4\x17\xcb\xcd\xa6\xe0 '
p2785
ssS'_usr_local_lib_python2_7_dist-packages_django_contrib_sessions___init__'
p2786
(dp2787
g6
(dp2788
g8
S'_usr_local_lib_python2_7_dist-packages_django_contrib_sessions___init__.html'
p2789
sg10
S'/usr/local/lib/python2.7/dist-packages/django/contrib/sessions/__init__'
p2790
sg12
g13
(g14
g15
NtRp2791
(dp2792
g18
I1
sg19
I0
sg20
I1
sg21
I0
sg22
I0
sg23
I0
sg24
I0
sbssg25
S'\xdcQHA\xd9\x96\x89w!\xbb\xc1o\xf5\x9e%\xf4'
p2793
ssS'_usr_local_lib_python2_7_dist-packages_django_core_mail_utils'
p2794
(dp2795
g6
(dp2796
g8
S'_usr_local_lib_python2_7_dist-packages_django_core_mail_utils.html'
p2797
sg10
S'/usr/local/lib/python2.7/dist-packages/django/core/mail/utils'
p2798
sg12
g13
(g14
g15
NtRp2799
(dp2800
g18
I1
sg19
I0
sg20
I9
sg21
I0
sg22
I0
sg23
I4
sg24
I0
sbssg25
S'1;F\xfb\xb1\rUh=1\x8b}\x9c3\xc3\xbf'
p2801
ssS'_usr_local_lib_python2_7_dist-packages_django_core_serializers_base'
p2802
(dp2803
g6
(dp2804
g8
S'_usr_local_lib_python2_7_dist-packages_django_core_serializers_base.html'
p2805
sg10
S'/usr/local/lib/python2.7/dist-packages/django/core/serializers/base'
p2806
sg12
g13
(g14
g15
NtRp2807
(dp2808
g18
I1
sg19
I0
sg20
I90
sg21
I0
sg22
I0
sg23
I33
sg24
I0
sbssg25
S'\x05:\xaa\x8f\xf4?\xa3P\x1d\x879H3\xf0\xc0\xe2'
p2809
ssS'_usr_local_lib_python2_7_dist-packages_django_contrib_messages___init__'
p2810
(dp2811
g6
(dp2812
g8
S'_usr_local_lib_python2_7_dist-packages_django_contrib_messages___init__.html'
p2813
sg10
S'/usr/local/lib/python2.7/dist-packages/django/contrib/messages/__init__'
p2814
sg12
g13
(g14
g15
NtRp2815
(dp2816
g18
I1
sg19
I0
sg20
I3
sg21
I0
sg22
I0
sg23
I0
sg24
I0
sbssg25
S'\xbc\xf2\x97i5\x1b\\M\x17\x84a\\p\xe3\xafw'
p2817
ssS'_usr_local_lib_python2_7_dist-packages_django_test_utils'
p2818
(dp2819
g6
(dp2820
g8
S'_usr_local_lib_python2_7_dist-packages_django_test_utils.html'
p2821
sg10
S'/usr/local/lib/python2.7/dist-packages/django/test/utils'
p2822
sg12
g13
(g14
g15
NtRp2823
(dp2824
g18
I1
sg19
I0
sg20
I301
sg21
I0
sg22
I0
sg23
I195
sg24
I0
sbssg25
S'tV{0\xc8K~\n\xda\x86\xb4\xd99\xffi\x85'
p2825
ssS'_usr_local_lib_python2_7_dist-packages_django_contrib_staticfiles___init__'
p2826
(dp2827
g6
(dp2828
g8
S'_usr_local_lib_python2_7_dist-packages_django_contrib_staticfiles___init__.html'
p2829
sg10
S'/usr/local/lib/python2.7/dist-packages/django/contrib/staticfiles/__init__'
p2830
sg12
g13
(g14
g15
NtRp2831
(dp2832
g18
I1
sg19
I0
sg20
I1
sg21
I0
sg22
I0
sg23
I0
sg24
I0
sbssg25
S'\n\xf5w\xa9q\x7f\x1f\xd1\xd9\x7f\xf5e\xee\xf4\x08\xcb'
p2833
ssS'_usr_local_lib_python2_7_dist-packages_django_contrib_admin_exceptions'
p2834
(dp2835
g6
(dp2836
g8
S'_usr_local_lib_python2_7_dist-packages_django_contrib_admin_exceptions.html'
p2837
sg10
S'/usr/local/lib/python2.7/dist-packages/django/contrib/admin/exceptions'
p2838
sg12
g13
(g14
g15
NtRp2839
(dp2840
g18
I1
sg19
I0
sg20
I5
sg21
I0
sg22
I0
sg23
I0
sg24
I0
sbssg25
S'M \xcd\x88l\xc5A\x88\x80\xbd\xc1\x08\xd9\x9b\xf88'
p2841
ssS'_usr_local_lib_python2_7_dist-packages_django_contrib_admin_validation'
p2842
(dp2843
g6
(dp2844
g8
S'_usr_local_lib_python2_7_dist-packages_django_contrib_admin_validation.html'
p2845
sg10
S'/usr/local/lib/python2.7/dist-packages/django/contrib/admin/validation'
p2846
sg12
g13
(g14
g15
NtRp2847
(dp2848
g18
I1
sg19
I0
sg20
I259
sg21
I0
sg22
I0
sg23
I214
sg24
I0
sbssg25
S'd\xe9\xa9\xdb\x8b\x8e\x92\xe3\x1b\xbd#\x83:\x13\xecy'
p2849
ssS'_usr_local_lib_python2_7_dist-packages_django_contrib_staticfiles_storage'
p2850
(dp2851
g6
(dp2852
g8
S'_usr_local_lib_python2_7_dist-packages_django_contrib_staticfiles_storage.html'
p2853
sg10
S'/usr/local/lib/python2.7/dist-packages/django/contrib/staticfiles/storage'
p2854
sg12
g13
(g14
g15
NtRp2855
(dp2856
g18
I1
sg19
I0
sg20
I243
sg21
I0
sg22
I0
sg23
I187
sg24
I0
sbssg25
S'\xa9Z\x7f \xbcd\x81v\x84\x00\xfc\x8eh\xad^\x07'
p2857
ssS'_usr_local_lib_python2_7_dist-packages_PIL_ImageDraw'
p2858
(dp2859
g6
(dp2860
g8
S'_usr_local_lib_python2_7_dist-packages_PIL_ImageDraw.html'
p2861
sg10
S'/usr/local/lib/python2.7/dist-packages/PIL/ImageDraw'
p2862
sg12
g13
(g14
g15
NtRp2863
(dp2864
g18
I1
sg19
I0
sg20
I203
sg21
I0
sg22
I0
sg23
I174
sg24
I0
sbssg25
S'\xcdB\n\xb7\x92D\x88\xef\xba*\xef\xb1\x07\x03\xadO'
p2865
ssS'apps_home_migrations_0001_initial'
p2866
(dp2867
g6
(dp2868
g8
S'apps_home_migrations_0001_initial.html'
p2869
sg10
S'apps/home/migrations/0001_initial'
p2870
sg12
g13
(g14
g15
NtRp2871
(dp2872
g18
I1
sg19
I0
sg20
I8
sg21
I0
sg22
I0
sg23
I0
sg24
I0
sbssg25
S'\xf5\xf7\xb3\x97w\x17;/\xb9\x8a@\xb2\xf6K\xe6\xf9'
p2873
ssS'_usr_local_lib_python2_7_dist-packages_django_contrib_admin_actions'
p2874
(dp2875
g6
(dp2876
g8
S'_usr_local_lib_python2_7_dist-packages_django_contrib_admin_actions.html'
p2877
sg10
S'/usr/local/lib/python2.7/dist-packages/django/contrib/admin/actions'
p2878
sg12
g13
(g14
g15
NtRp2879
(dp2880
g18
I1
sg19
I0
sg20
I35
sg21
I0
sg22
I0
sg23
I25
sg24
I0
sbssg25
S'l\xcfB\x96k\xf5\x83\x85 \xa47\x92\x17\xa1\x99\x8d'
p2881
ssS'_usr_local_lib_python2_7_dist-packages_django_contrib_admin_migrations___init__'
p2882
(dp2883
g6
(dp2884
g8
S'_usr_local_lib_python2_7_dist-packages_django_contrib_admin_migrations___init__.html'
p2885
sg10
S'/usr/local/lib/python2.7/dist-packages/django/contrib/admin/migrations/__init__'
p2886
sg12
g13
(g14
g15
NtRp2887
(dp2888
g18
I1
sg19
I0
sg20
I0
sg21
I0
sg22
I0
sg23
I0
sg24
I0
sbssg25
S'\xca\xf5\x9f\x7f\x88\xdfa\x831|T\x1d\xbc}\xa5v'
p2889
ssS'_usr_local_lib_python2_7_dist-packages_PIL_Image'
p2890
(dp2891
g6
(dp2892
g8
S'_usr_local_lib_python2_7_dist-packages_PIL_Image.html'
p2893
sg10
S'/usr/local/lib/python2.7/dist-packages/PIL/Image'
p2894
sg12
g13
(g14
g15
NtRp2895
(dp2896
g18
I1
sg19
I0
sg20
I995
sg21
I0
sg22
I0
sg23
I672
sg24
I0
sbssg25
S'\x0b\x1b;\x1c\xf2\x0fx\xa92\xeb\x9cz\xc0,\x1e\xa1'
p2897
ssS'_usr_local_lib_python2_7_dist-packages_debug_toolbar_panels_sql_utils'
p2898
(dp2899
g6
(dp2900
g8
S'_usr_local_lib_python2_7_dist-packages_debug_toolbar_panels_sql_utils.html'
p2901
sg10
S'/usr/local/lib/python2.7/dist-packages/debug_toolbar/panels/sql/utils'
p2902
sg12
g13
(g14
g15
NtRp2903
(dp2904
g18
I1
sg19
I0
sg20
I39
sg21
I0
sg22
I0
sg23
I29
sg24
I0
sbssg25
S"\xa9p@\x8fo\xe7\x11\xa1f'\x82\x9d=\xac\xc9\xe7"
p2905
ssS'_usr_local_lib_python2_7_dist-packages_pilkit_processors_base'
p2906
(dp2907
g6
(dp2908
g8
S'_usr_local_lib_python2_7_dist-packages_pilkit_processors_base.html'
p2909
sg10
S'/usr/local/lib/python2.7/dist-packages/pilkit/processors/base'
p2910
sg12
g13
(g14
g15
NtRp2911
(dp2912
g18
I1
sg19
I0
sg20
I98
sg21
I0
sg22
I0
sg23
I52
sg24
I0
sbssg25
S'\xeb\xc7\x91\x0c\x15\xfar\x8cX\xaf\xdf\t\xc8u\x18\xa1'
p2913
ssS'_usr_local_lib_python2_7_dist-packages_django_core_management_commands_dumpdata'
p2914
(dp2915
g6
(dp2916
g8
S'_usr_local_lib_python2_7_dist-packages_django_core_management_commands_dumpdata.html'
p2917
sg10
S'/usr/local/lib/python2.7/dist-packages/django/core/management/commands/dumpdata'
p2918
sg12
g13
(g14
g15
NtRp2919
(dp2920
g18
I1
sg19
I0
sg20
I145
sg21
I0
sg22
I0
sg23
I91
sg24
I0
sbssg25
S'K<\x1a \xbbtZ(\x19\xa1\x05\x12\xe9c\xd7\x95'
p2921
ssS'_usr_local_lib_python2_7_dist-packages_sqlparse_pipeline'
p2922
(dp2923
g6
(dp2924
g8
S'_usr_local_lib_python2_7_dist-packages_sqlparse_pipeline.html'
p2925
sg10
S'/usr/local/lib/python2.7/dist-packages/sqlparse/pipeline'
p2926
sg12
g13
(g14
g15
NtRp2927
(dp2928
g18
I1
sg19
I0
sg20
I10
sg21
I0
sg22
I0
sg23
I7
sg24
I0
sbssg25
S'5\x9b\xc4k\x1a\xa7RGk\xb8R\xf3\xc3#\xd5\x90'
p2929
ssS'_usr_local_lib_python2_7_dist-packages_PIL_GifImagePlugin'
p2930
(dp2931
g6
(dp2932
g8
S'_usr_local_lib_python2_7_dist-packages_PIL_GifImagePlugin.html'
p2933
sg10
S'/usr/local/lib/python2.7/dist-packages/PIL/GifImagePlugin'
p2934
sg12
g13
(g14
g15
NtRp2935
(dp2936
g18
I1
sg19
I0
sg20
I278
sg21
I0
sg22
I0
sg23
I248
sg24
I0
sbssg25
S'9\xd3\xd6OD\t\xe5~\x1f\x984[\x92NGf'
p2937
ssS'_usr_local_lib_python2_7_dist-packages_jsonview_exceptions'
p2938
(dp2939
g6
(dp2940
g8
S'_usr_local_lib_python2_7_dist-packages_jsonview_exceptions.html'
p2941
sg10
S'/usr/local/lib/python2.7/dist-packages/jsonview/exceptions'
p2942
sg12
g13
(g14
g15
NtRp2943
(dp2944
g18
I1
sg19
I0
sg20
I2
sg21
I0
sg22
I0
sg23
I0
sg24
I0
sbssg25
S'\xa2[C\xcf5\xe4\xf2J\xd9\xcdwh\xae\x11vy'
p2945
ssS'_usr_local_lib_python2_7_dist-packages_sqlparse_filters'
p2946
(dp2947
g6
(dp2948
g8
S'_usr_local_lib_python2_7_dist-packages_sqlparse_filters.html'
p2949
sg10
S'/usr/local/lib/python2.7/dist-packages/sqlparse/filters'
p2950
sg12
g13
(g14
g15
NtRp2951
(dp2952
g18
I1
sg19
I0
sg20
I450
sg21
I0
sg22
I0
sg23
I375
sg24
I0
sbssg25
S'\xf1\x98\xa6\xce\xec\x8d\xe8\rO\x92\xf0\x92\xfc\xe0aH'
p2953
ssS'_usr_local_lib_python2_7_dist-packages_jsonview___init__'
p2954
(dp2955
g6
(dp2956
g8
S'_usr_local_lib_python2_7_dist-packages_jsonview___init__.html'
p2957
sg10
S'/usr/local/lib/python2.7/dist-packages/jsonview/__init__'
p2958
sg12
g13
(g14
g15
NtRp2959
(dp2960
g18
I1
sg19
I0
sg20
I2
sg21
I0
sg22
I0
sg23
I0
sg24
I0
sbssg25
S'\xcd\xd9\x87\x07\x1e\xce#\x86\xd4\xcf\xb6\xc8c\xd3\xed\xd8'
p2961
ssS'_usr_local_lib_python2_7_dist-packages_debug_toolbar_panels_versions'
p2962
(dp2963
g6
(dp2964
g8
S'_usr_local_lib_python2_7_dist-packages_debug_toolbar_panels_versions.html'
p2965
sg10
S'/usr/local/lib/python2.7/dist-packages/debug_toolbar/panels/versions'
p2966
sg12
g13
(g14
g15
NtRp2967
(dp2968
g18
I1
sg19
I0
sg20
I54
sg21
I0
sg22
I0
sg23
I36
sg24
I0
sbssg25
S'\xa4E\xa9\x07\xffw\x16\xca\x9d\xc5\xf8\xd5\xd806\xb3'
p2969
ssS'_usr_local_lib_python2_7_dist-packages_imagekit_models_fields___init__'
p2970
(dp2971
g6
(dp2972
g8
S'_usr_local_lib_python2_7_dist-packages_imagekit_models_fields___init__.html'
p2973
sg10
S'/usr/local/lib/python2.7/dist-packages/imagekit/models/fields/__init__'
p2974
sg12
g13
(g14
g15
NtRp2975
(dp2976
g18
I1
sg19
I0
sg20
I46
sg21
I0
sg22
I0
sg23
I9
sg24
I0
sbssg25
S'\xcd\xa8x\xc0\xe7\x94$\x0c\xb5\xa4@\xd0z\xc5\xd8%'
p2977
ssS'_usr_local_lib_python2_7_dist-packages_django_db_migrations_graph'
p2978
(dp2979
g6
(dp2980
g8
S'_usr_local_lib_python2_7_dist-packages_django_db_migrations_graph.html'
p2981
sg10
S'/usr/local/lib/python2.7/dist-packages/django/db/migrations/graph'
p2982
sg12
g13
(g14
g15
NtRp2983
(dp2984
g18
I1
sg19
I0
sg20
I79
sg21
I0
sg22
I0
sg23
I8
sg24
I0
sbssg25
S',\xea\x91\xca\xb2^\xa2\x0cs)\x7f\x8f\x7f\x1a\x05\xa9'
p2985
ssS'_usr_local_lib_python2_7_dist-packages_django_utils_image'
p2986
(dp2987
g6
(dp2988
g8
S'_usr_local_lib_python2_7_dist-packages_django_utils_image.html'
p2989
sg10
S'/usr/local/lib/python2.7/dist-packages/django/utils/image'
p2990
sg12
g13
(g14
g15
NtRp2991
(dp2992
g18
I1
sg19
I0
sg20
I38
sg21
I0
sg22
I0
sg23
I18
sg24
I0
sbssg25
S'\xbf\xa4\\\xd8\x98O\x18\xb7\xbap\x07\x8dD\xce\x12B'
p2993
ssS'_usr_local_lib_python2_7_dist-packages_django_db_models_sql_expressions'
p2994
(dp2995
g6
(dp2996
g8
S'_usr_local_lib_python2_7_dist-packages_django_db_models_sql_expressions.html'
p2997
sg10
S'/usr/local/lib/python2.7/dist-packages/django/db/models/sql/expressions'
p2998
sg12
g13
(g14
g15
NtRp2999
(dp3000
g18
I1
sg19
I0
sg20
I83
sg21
I0
sg22
I0
sg23
I68
sg24
I0
sbssg25
S' \xd3\x01\x8a\x81\xb16\xf9\xca1-\xa9\x10FV\x8f'
p3001
ssS'_usr_local_lib_python2_7_dist-packages_django_core_files_locks'
p3002
(dp3003
g6
(dp3004
g8
S'_usr_local_lib_python2_7_dist-packages_django_core_files_locks.html'
p3005
sg10
S'/usr/local/lib/python2.7/dist-packages/django/core/files/locks'
p3006
sg12
g13
(g14
g15
NtRp3007
(dp3008
g18
I1
sg19
I0
sg20
I57
sg21
I0
sg22
I0
sg23
I41
sg24
I0
sbssg25
S'\xff\xe6\xaa\xba\xe9(g\xc3\xeb\xb7\x0f\x94s{\xa3\xef'
p3009
ssS'_usr_local_lib_python2_7_dist-packages_sqlparse_engine_filter'
p3010
(dp3011
g6
(dp3012
g8
S'_usr_local_lib_python2_7_dist-packages_sqlparse_engine_filter.html'
p3013
sg10
S'/usr/local/lib/python2.7/dist-packages/sqlparse/engine/filter'
p3014
sg12
g13
(g14
g15
NtRp3015
(dp3016
g18
I1
sg19
I0
sg20
I65
sg21
I0
sg22
I0
sg23
I58
sg24
I0
sbssg25
S'\xcd}=\xa4\x86\x1az\xf1\xc47\xee6\xbcz\xefR'
p3017
ssS'_usr_local_lib_python2_7_dist-packages_PIL_ImageChops'
p3018
(dp3019
g6
(dp3020
g8
S'_usr_local_lib_python2_7_dist-packages_PIL_ImageChops.html'
p3021
sg10
S'/usr/local/lib/python2.7/dist-packages/PIL/ImageChops'
p3022
sg12
g13
(g14
g15
NtRp3023
(dp3024
g18
I1
sg19
I0
sg20
I65
sg21
I0
sg22
I0
sg23
I46
sg24
I0
sbssg25
S'\xc6;\x81\xa9\x93\xcaXDZ..i\xfc\x80\xb4\xd5'
p3025
ssS'_usr_local_lib_python2_7_dist-packages_django_utils_termcolors'
p3026
(dp3027
g6
(dp3028
g8
S'_usr_local_lib_python2_7_dist-packages_django_utils_termcolors.html'
p3029
sg10
S'/usr/local/lib/python2.7/dist-packages/django/utils/termcolors'
p3030
sg12
g13
(g14
g15
NtRp3031
(dp3032
g18
I1
sg19
I0
sg20
I57
sg21
I0
sg22
I0
sg23
I29
sg24
I0
sbssg25
S'$\xc93T\xd0\xaff;\x19\x98u\x1c\xae{\xad\x8a'
p3033
ssS'_usr_local_lib_python2_7_dist-packages_django_template_response'
p3034
(dp3035
g6
(dp3036
g8
S'_usr_local_lib_python2_7_dist-packages_django_template_response.html'
p3037
sg10
S'/usr/local/lib/python2.7/dist-packages/django/template/response'
p3038
sg12
g13
(g14
g15
NtRp3039
(dp3040
g18
I1
sg19
I0
sg20
I72
sg21
I0
sg22
I0
sg23
I50
sg24
I0
sbssg25
S'\xe0o]\x1f\x01\x1b7,*\x93+\xff\x96=i\x83'
p3041
ssS'_usr_local_lib_python2_7_dist-packages_django_http_multipartparser'
p3042
(dp3043
g6
(dp3044
g8
S'_usr_local_lib_python2_7_dist-packages_django_http_multipartparser.html'
p3045
sg10
S'/usr/local/lib/python2.7/dist-packages/django/http/multipartparser'
p3046
sg12
g13
(g14
g15
NtRp3047
(dp3048
g18
I1
sg19
I0
sg20
I351
sg21
I0
sg22
I0
sg23
I295
sg24
I0
sbssg25
S'\xde\x1c\xff1a8\x07.\xdd\xbc\xde\xecU\xc0\xf4\x80'
p3049
ssS'_usr_local_lib_python2_7_dist-packages_django_core_checks_compatibility_django_1_7_0'
p3050
(dp3051
g6
(dp3052
g8
S'_usr_local_lib_python2_7_dist-packages_django_core_checks_compatibility_django_1_7_0.html'
p3053
sg10
S'/usr/local/lib/python2.7/dist-packages/django/core/checks/compatibility/django_1_7_0'
p3054
sg12
g13
(g14
g15
NtRp3055
(dp3056
g18
I1
sg19
I0
sg20
I11
sg21
I0
sg22
I0
sg23
I1
sg24
I0
sbssg25
S's\xa36\x93\xe9\x82\xe3\xfbcAm\xe9j\x1e\xcc\xfd'
p3057
ssS'_usr_local_lib_python2_7_dist-packages_django_core_mail_message'
p3058
(dp3059
g6
(dp3060
g8
S'_usr_local_lib_python2_7_dist-packages_django_core_mail_message.html'
p3061
sg10
S'/usr/local/lib/python2.7/dist-packages/django/core/mail/message'
p3062
sg12
g13
(g14
g15
NtRp3063
(dp3064
g18
I1
sg19
I0
sg20
I240
sg21
I0
sg22
I0
sg23
I180
sg24
I0
sbssg25
S')\x8bp\xff\x88+\x1e\x8a\xe4\x01\x90\xba2D\x89\xfc'
p3065
ssS'_usr_local_lib_python2_7_dist-packages_django_utils_dateparse'
p3066
(dp3067
g6
(dp3068
g8
S'_usr_local_lib_python2_7_dist-packages_django_utils_dateparse.html'
p3069
sg10
S'/usr/local/lib/python2.7/dist-packages/django/utils/dateparse'
p3070
sg12
g13
(g14
g15
NtRp3071
(dp3072
g18
I1
sg19
I0
sg20
I38
sg21
I0
sg22
I0
sg23
I28
sg24
I0
sbssg25
S'3Z\x0e,(\xf8\xb8\xad0\xdd^\t\xfa\x0e\xa4\x87'
p3073
ssS'_usr_local_lib_python2_7_dist-packages_django_db_models_deletion'
p3074
(dp3075
g6
(dp3076
g8
S'_usr_local_lib_python2_7_dist-packages_django_db_models_deletion.html'
p3077
sg10
S'/usr/local/lib/python2.7/dist-packages/django/db/models/deletion'
p3078
sg12
g13
(g14
g15
NtRp3079
(dp3080
g18
I1
sg19
I0
sg20
I154
sg21
I0
sg22
I0
sg23
I48
sg24
I0
sbssg25
S'N2\\\x92]\xde\xba\xa7\x08Zv\xe1)\xb7k@'
p3081
ssS'_usr_local_lib_python2_7_dist-packages_django_db_models_fields_related'
p3082
(dp3083
g6
(dp3084
g8
S'_usr_local_lib_python2_7_dist-packages_django_db_models_fields_related.html'
p3085
sg10
S'/usr/local/lib/python2.7/dist-packages/django/db/models/fields/related'
p3086
sg12
g13
(g14
g15
NtRp3087
(dp3088
g18
I1
sg19
I0
sg20
I1169
sg21
I0
sg22
I0
sg23
I505
sg24
I0
sbssg25
S'p^o\xc5L\xc3\xb3\t\n[o\xd69\x07\xf7O'
p3089
ssS'_usr_local_lib_python2_7_dist-packages_django_utils_xmlutils'
p3090
(dp3091
g6
(dp3092
g8
S'_usr_local_lib_python2_7_dist-packages_django_utils_xmlutils.html'
p3093
sg10
S'/usr/local/lib/python2.7/dist-packages/django/utils/xmlutils'
p3094
sg12
g13
(g14
g15
NtRp3095
(dp3096
g18
I1
sg19
I0
sg20
I9
sg21
I0
sg22
I0
sg23
I6
sg24
I0
sbssg25
S'#\x9f\x92\x9d2\xeb\xac\x95\x9a\x19\x9e\xe8\xd6 \xaf\x8c'
p3097
ssS'_usr_local_lib_python2_7_dist-packages_django_contrib_staticfiles_templatetags___init__'
p3098
(dp3099
g6
(dp3100
g8
S'_usr_local_lib_python2_7_dist-packages_django_contrib_staticfiles_templatetags___init__.html'
p3101
sg10
S'/usr/local/lib/python2.7/dist-packages/django/contrib/staticfiles/templatetags/__init__'
p3102
sg12
g13
(g14
g15
NtRp3103
(dp3104
g18
I1
sg19
I0
sg20
I0
sg21
I0
sg22
I0
sg23
I0
sg24
I0
sbssg25
S'\xca\xf5\x9f\x7f\x88\xdfa\x831|T\x1d\xbc}\xa5v'
p3105
ssS'_usr_local_lib_python2_7_dist-packages_imagekit_cachefiles___init__'
p3106
(dp3107
g6
(dp3108
g8
S'_usr_local_lib_python2_7_dist-packages_imagekit_cachefiles___init__.html'
p3109
sg10
S'/usr/local/lib/python2.7/dist-packages/imagekit/cachefiles/__init__'
p3110
sg12
g13
(g14
g15
NtRp3111
(dp3112
g18
I1
sg19
I0
sg20
I69
sg21
I0
sg22
I0
sg23
I25
sg24
I0
sbssg25
S'C\x06\x89\xca\xa7eAa\xd8\x0f+)\x93J\x05\xb9'
p3113
ssS'_usr_local_lib_python2_7_dist-packages_django_core_context_processors'
p3114
(dp3115
g6
(dp3116
g8
S'_usr_local_lib_python2_7_dist-packages_django_core_context_processors.html'
p3117
sg10
S'/usr/local/lib/python2.7/dist-packages/django/core/context_processors'
p3118
sg12
g13
(g14
g15
NtRp3119
(dp3120
g18
I1
sg19
I0
sg20
I37
sg21
I0
sg22
I0
sg23
I17
sg24
I0
sbssg25
S'\xff\xb1Sr\xf3\xa2\xac\xaa\x97\xcc\xadz\xae4\xa7\xf4'
p3121
ssS'_usr_local_lib_python2_7_dist-packages_PIL_PpmImagePlugin'
p3122
(dp3123
g6
(dp3124
g8
S'_usr_local_lib_python2_7_dist-packages_PIL_PpmImagePlugin.html'
p3125
sg10
S'/usr/local/lib/python2.7/dist-packages/PIL/PpmImagePlugin'
p3126
sg12
g13
(g14
g15
NtRp3127
(dp3128
g18
I1
sg19
I0
sg20
I96
sg21
I0
sg22
I0
sg23
I72
sg24
I0
sbssg25
S'\x9e}\xb6\xb8\xe4cR3\x17\xf0FFPb\xe7\x01'
p3129
ssS'_usr_local_lib_python2_7_dist-packages_django_db_models_sql_aggregates'
p3130
(dp3131
g6
(dp3132
g8
S'_usr_local_lib_python2_7_dist-packages_django_db_models_sql_aggregates.html'
p3133
sg10
S'/usr/local/lib/python2.7/dist-packages/django/db/models/sql/aggregates'
p3134
sg12
g13
(g14
g15
NtRp3135
(dp3136
g18
I1
sg19
I0
sg20
I70
sg21
I0
sg22
I0
sg23
I16
sg24
I0
sbssg25
S'\xad\xea\x81\xd2\xab\x7f\x96\x01S\x1d\x8aXn\xbaa|'
p3137
ssS'_usr_local_lib_python2_7_dist-packages_imagekit_files'
p3138
(dp3139
g6
(dp3140
g8
S'_usr_local_lib_python2_7_dist-packages_imagekit_files.html'
p3141
sg10
S'/usr/local/lib/python2.7/dist-packages/imagekit/files'
p3142
sg12
g13
(g14
g15
NtRp3143
(dp3144
g18
I1
sg19
I0
sg20
I64
sg21
I0
sg22
I0
sg23
I34
sg24
I0
sbssg25
S'\x08\x1co\r:\x1d\xcb\xc7\xf5\x1b\xbaH1\x98Ar'
p3145
ssS'_usr_local_lib_python2_7_dist-packages_django_utils_log'
p3146
(dp3147
g6
(dp3148
g8
S'_usr_local_lib_python2_7_dist-packages_django_utils_log.html'
p3149
sg10
S'/usr/local/lib/python2.7/dist-packages/django/utils/log'
p3150
sg12
g13
(g14
g15
NtRp3151
(dp3152
g18
I1
sg19
I0
sg20
I63
sg21
I0
sg22
I0
sg23
I27
sg24
I0
sbssg25
S'F*\xdf~{}GA\xac\xac \x9f\xcd\xff\xe1$'
p3153
ssS'_usr_local_lib_python2_7_dist-packages_pilkit_utils'
p3154
(dp3155
g6
(dp3156
g8
S'_usr_local_lib_python2_7_dist-packages_pilkit_utils.html'
p3157
sg10
S'/usr/local/lib/python2.7/dist-packages/pilkit/utils'
p3158
sg12
g13
(g14
g15
NtRp3159
(dp3160
g18
I1
sg19
I0
sg20
I187
sg21
I0
sg22
I0
sg23
I80
sg24
I0
sbssg25
S';\x99\xb0V\x0c\xae\xb9\xc6\x1f\x9d~\xe1\x91~\xb9\x02'
p3161
ssS'_usr_local_lib_python2_7_dist-packages_PIL_ImageMode'
p3162
(dp3163
g6
(dp3164
g8
S'_usr_local_lib_python2_7_dist-packages_PIL_ImageMode.html'
p3165
sg10
S'/usr/local/lib/python2.7/dist-packages/PIL/ImageMode'
p3166
sg12
g13
(g14
g15
NtRp3167
(dp3168
g18
I1
sg19
I0
sg20
I20
sg21
I0
sg22
I0
sg23
I15
sg24
I0
sbssg25
S'\xefb\xb0\xc0\x1e\xc5\xc5\x9f\xc4\xde\x04c\x10\x05%M'
p3169
ssS'_usr_local_lib_python2_7_dist-packages_django_utils_text'
p3170
(dp3171
g6
(dp3172
g8
S'_usr_local_lib_python2_7_dist-packages_django_utils_text.html'
p3173
sg10
S'/usr/local/lib/python2.7/dist-packages/django/utils/text'
p3174
sg12
g13
(g14
g15
NtRp3175
(dp3176
g18
I1
sg19
I0
sg20
I239
sg21
I0
sg22
I0
sg23
I167
sg24
I0
sbssg25
S'?y\xa2\x19\xdc\xb8\x86U\xb8\xe8\xbea\xc3\x115+'
p3177
ssS'_usr_local_lib_python2_7_dist-packages_imagekit_processors___init__'
p3178
(dp3179
g6
(dp3180
g8
S'_usr_local_lib_python2_7_dist-packages_imagekit_processors___init__.html'
p3181
sg10
S'/usr/local/lib/python2.7/dist-packages/imagekit/processors/__init__'
p3182
sg12
g13
(g14
g15
NtRp3183
(dp3184
g18
I1
sg19
I0
sg20
I2
sg21
I0
sg22
I0
sg23
I0
sg24
I0
sbssg25
S'\xc2\rj<\xa3\xeb\xfd\xb6\xc9\x81\xbe\xe4\x0eC\x81d'
p3185
ssS'_usr_local_lib_python2_7_dist-packages_debug_toolbar_middleware'
p3186
(dp3187
g6
(dp3188
g8
S'_usr_local_lib_python2_7_dist-packages_debug_toolbar_middleware.html'
p3189
sg10
S'/usr/local/lib/python2.7/dist-packages/debug_toolbar/middleware'
p3190
sg12
g13
(g14
g15
NtRp3191
(dp3192
g18
I1
sg19
I0
sg20
I79
sg21
I0
sg22
I0
sg23
I48
sg24
I0
sbssg25
S'\xdd\xdeg\x81\xd2j\x8f\xc0\t\x0e\xb44\x12\xf5\x94u'
p3193
ssS'_usr_local_lib_python2_7_dist-packages_django_utils__os'
p3194
(dp3195
g6
(dp3196
g8
S'_usr_local_lib_python2_7_dist-packages_django_utils__os.html'
p3197
sg10
S'/usr/local/lib/python2.7/dist-packages/django/utils/_os'
p3198
sg12
g13
(g14
g15
NtRp3199
(dp3200
g18
I1
sg19
I0
sg20
I58
sg21
I0
sg22
I0
sg23
I26
sg24
I0
sbssg25
S'\x82Z\x91\x89\xe3\x04\xb6\xbc\xa9\x00_2\n\xdd\x7f\xb8'
p3201
ssS'_usr_local_lib_python2_7_dist-packages_django_db_models_sql___init__'
p3202
(dp3203
g6
(dp3204
g8
S'_usr_local_lib_python2_7_dist-packages_django_db_models_sql___init__.html'
p3205
sg10
S'/usr/local/lib/python2.7/dist-packages/django/db/models/sql/__init__'
p3206
sg12
g13
(g14
g15
NtRp3207
(dp3208
g18
I1
sg19
I0
sg20
I5
sg21
I0
sg22
I0
sg23
I0
sg24
I0
sbssg25
S'\xe0&\xa6\xf7x\xac\xe6\xde\xb7\xfb\x06\xee\xe3P^g'
p3209
ssS'_usr_local_lib_python2_7_dist-packages_django_forms_formsets'
p3210
(dp3211
g6
(dp3212
g8
S'_usr_local_lib_python2_7_dist-packages_django_forms_formsets.html'
p3213
sg10
S'/usr/local/lib/python2.7/dist-packages/django/forms/formsets'
p3214
sg12
g13
(g14
g15
NtRp3215
(dp3216
g18
I1
sg19
I0
sg20
I221
sg21
I0
sg22
I0
sg23
I160
sg24
I0
sbssg25
S';\xcc\xcaO\x97\xb8\xc4t\xa6\xfc_7\xf2\x81\nM'
p3217
ssS'_usr_local_lib_python2_7_dist-packages_django_shortcuts'
p3218
(dp3219
g6
(dp3220
g8
S'_usr_local_lib_python2_7_dist-packages_django_shortcuts.html'
p3221
sg10
S'/usr/local/lib/python2.7/dist-packages/django/shortcuts'
p3222
sg12
g13
(g14
g15
NtRp3223
(dp3224
g18
I1
sg19
I0
sg20
I64
sg21
I0
sg22
I0
sg23
I43
sg24
I0
sbssg25
S'wu\xb2\xcf\x97\xb7\xf8\xe1\x1c\x04\xfd?\x02#\xf4\xc1'
p3225
ssS'_usr_local_lib_python2_7_dist-packages_django_utils_synch'
p3226
(dp3227
g6
(dp3228
g8
S'_usr_local_lib_python2_7_dist-packages_django_utils_synch.html'
p3229
sg10
S'/usr/local/lib/python2.7/dist-packages/django/utils/synch'
p3230
sg12
g13
(g14
g15
NtRp3231
(dp3232
g18
I1
sg19
I0
sg20
I59
sg21
I0
sg22
I0
sg23
I41
sg24
I0
sbssg25
S'XcEAm1o\x86 G\xd3\x04\xbb)7z'
p3233
ssS'_usr_local_lib_python2_7_dist-packages_django_test_testcases'
p3234
(dp3235
g6
(dp3236
g8
S'_usr_local_lib_python2_7_dist-packages_django_test_testcases.html'
p3237
sg10
S'/usr/local/lib/python2.7/dist-packages/django/test/testcases'
p3238
sg12
g13
(g14
g15
NtRp3239
(dp3240
g18
I1
sg19
I0
sg20
I604
sg21
I0
sg22
I0
sg23
I409
sg24
I0
sbssg25
S'\xd94\x00\xf4e\xf8\x8f\x1b\xf2\x02\x80\xc5M\xff\xb5\xbe'
p3241
ssS'_usr_local_lib_python2_7_dist-packages_django_forms_fields'
p3242
(dp3243
g6
(dp3244
g8
S'_usr_local_lib_python2_7_dist-packages_django_forms_fields.html'
p3245
sg10
S'/usr/local/lib/python2.7/dist-packages/django/forms/fields'
p3246
sg12
g13
(g14
g15
NtRp3247
(dp3248
g18
I1
sg19
I0
sg20
I676
sg21
I0
sg22
I0
sg23
I440
sg24
I0
sbssg25
S'f\xb7\xd5q\x87$\x15\x1f\x7f\x94\x81\xced\xae\x1e\x04'
p3249
ssS'_usr_local_lib_python2_7_dist-packages_django_db_migrations___init__'
p3250
(dp3251
g6
(dp3252
g8
S'_usr_local_lib_python2_7_dist-packages_django_db_migrations___init__.html'
p3253
sg10
S'/usr/local/lib/python2.7/dist-packages/django/db/migrations/__init__'
p3254
sg12
g13
(g14
g15
NtRp3255
(dp3256
g18
I1
sg19
I0
sg20
I2
sg21
I0
sg22
I0
sg23
I0
sg24
I0
sbssg25
S'`j\xe71\xb5\xd6\x16\xd3Kw\xba^\x04:M\xf2'
p3257
ssS'_usr_local_lib_python2_7_dist-packages_django_contrib___init__'
p3258
(dp3259
g6
(dp3260
g8
S'_usr_local_lib_python2_7_dist-packages_django_contrib___init__.html'
p3261
sg10
S'/usr/local/lib/python2.7/dist-packages/django/contrib/__init__'
p3262
sg12
g13
(g14
g15
NtRp3263
(dp3264
g18
I1
sg19
I0
sg20
I0
sg21
I0
sg22
I0
sg23
I0
sg24
I0
sbssg25
S'\xca\xf5\x9f\x7f\x88\xdfa\x831|T\x1d\xbc}\xa5v'
p3265
ssS'_usr_local_lib_python2_7_dist-packages_imagekit_specs___init__'
p3266
(dp3267
g6
(dp3268
g8
S'_usr_local_lib_python2_7_dist-packages_imagekit_specs___init__.html'
p3269
sg10
S'/usr/local/lib/python2.7/dist-packages/imagekit/specs/__init__'
p3270
sg12
g13
(g14
g15
NtRp3271
(dp3272
g18
I1
sg19
I0
sg20
I101
sg21
I0
sg22
I0
sg23
I33
sg24
I0
sbssg25
S"\x83+;\x1c\xccm'\xbb(o\x87\x14\x1b\x82[g"
p3273
ssS'_usr_local_lib_python2_7_dist-packages_django_core_servers___init__'
p3274
(dp3275
g6
(dp3276
g8
S'_usr_local_lib_python2_7_dist-packages_django_core_servers___init__.html'
p3277
sg10
S'/usr/local/lib/python2.7/dist-packages/django/core/servers/__init__'
p3278
sg12
g13
(g14
g15
NtRp3279
(dp3280
g18
I1
sg19
I0
sg20
I0
sg21
I0
sg22
I0
sg23
I0
sg24
I0
sbssg25
S'\xca\xf5\x9f\x7f\x88\xdfa\x831|T\x1d\xbc}\xa5v'
p3281
ssS'_usr_local_lib_python2_7_dist-packages_pilkit_exceptions'
p3282
(dp3283
g6
(dp3284
g8
S'_usr_local_lib_python2_7_dist-packages_pilkit_exceptions.html'
p3285
sg10
S'/usr/local/lib/python2.7/dist-packages/pilkit/exceptions'
p3286
sg12
g13
(g14
g15
NtRp3287
(dp3288
g18
I1
sg19
I0
sg20
I4
sg21
I0
sg22
I0
sg23
I0
sg24
I0
sbssg25
S'\xa9\xa0\xa5\xcdv\xde\x07P\xdb.7^\x02\x8bu5'
p3289
ssS'_usr_local_lib_python2_7_dist-packages_django_core_cache_backends_locmem'
p3290
(dp3291
g6
(dp3292
g8
S'_usr_local_lib_python2_7_dist-packages_django_core_cache_backends_locmem.html'
p3293
sg10
S'/usr/local/lib/python2.7/dist-packages/django/core/cache/backends/locmem'
p3294
sg12
g13
(g14
g15
NtRp3295
(dp3296
g18
I1
sg19
I0
sg20
I108
sg21
I0
sg22
I0
sg23
I81
sg24
I0
sbssg25
S"\x04'\x07\x06I\x0e\xa96G\xd8\x94w\x0b\x08Z\xe9"
p3297
ssS'_usr_local_lib_python2_7_dist-packages_imagekit___init__'
p3298
(dp3299
g6
(dp3300
g8
S'_usr_local_lib_python2_7_dist-packages_imagekit___init__.html'
p3301
sg10
S'/usr/local/lib/python2.7/dist-packages/imagekit/__init__'
p3302
sg12
g13
(g14
g15
NtRp3303
(dp3304
g18
I1
sg19
I0
sg20
I5
sg21
I0
sg22
I0
sg23
I0
sg24
I0
sbssg25
S'\xf7\xa8o\xa1\x7f\xd3.\x06sC\x8b\x98\x07\xcfd\xc7'
p3305
ssS'_usr_local_lib_python2_7_dist-packages_django_contrib_staticfiles_templatetags_staticfiles'
p3306
(dp3307
g6
(dp3308
g8
S'_usr_local_lib_python2_7_dist-packages_django_contrib_staticfiles_templatetags_staticfiles.html'
p3309
sg10
S'/usr/local/lib/python2.7/dist-packages/django/contrib/staticfiles/templatetags/staticfiles'
p3310
sg12
g13
(g14
g15
NtRp3311
(dp3312
g18
I1
sg19
I0
sg20
I12
sg21
I0
sg22
I0
sg23
I4
sg24
I0
sbssg25
S'\xa2\x044\xc2\xf2\x8a|$\x13U\x9c\xde\x91p\xc1\xa5'
p3313
ssS'_usr_local_lib_python2_7_dist-packages_django_db_migrations_writer'
p3314
(dp3315
g6
(dp3316
g8
S'_usr_local_lib_python2_7_dist-packages_django_db_migrations_writer.html'
p3317
sg10
S'/usr/local/lib/python2.7/dist-packages/django/db/migrations/writer'
p3318
sg12
g13
(g14
g15
NtRp3319
(dp3320
g18
I1
sg19
I0
sg20
I257
sg21
I0
sg22
I0
sg23
I219
sg24
I0
sbssg25
S'L)\x1bU \\\x99\x9e\x1f+y\xbd\x87k\x19\x89'
p3321
ssS'_usr_local_lib_python2_7_dist-packages_django_dispatch_weakref_backports'
p3322
(dp3323
g6
(dp3324
g8
S'_usr_local_lib_python2_7_dist-packages_django_dispatch_weakref_backports.html'
p3325
sg10
S'/usr/local/lib/python2.7/dist-packages/django/dispatch/weakref_backports'
p3326
sg12
g13
(g14
g15
NtRp3327
(dp3328
g18
I1
sg19
I0
sg20
I40
sg21
I0
sg22
I0
sg23
I12
sg24
I0
sbssg25
S'\xb5\xb3>"H%z\x1f\xd0t\xfe\x85\xe6\xfa\xd8\xff'
p3329
ssS'apps_product_templatetags___init__'
p3330
(dp3331
g6
(dp3332
g8
S'apps_product_templatetags___init__.html'
p3333
sg10
S'apps/product/templatetags/__init__'
p3334
sg12
g13
(g14
g15
NtRp3335
(dp3336
g18
I1
sg19
I0
sg20
I0
sg21
I0
sg22
I0
sg23
I0
sg24
I0
sbssg25
S'\xca\xf5\x9f\x7f\x88\xdfa\x831|T\x1d\xbc}\xa5v'
p3337
ssS'_usr_local_lib_python2_7_dist-packages_django_template_defaulttags'
p3338
(dp3339
g6
(dp3340
g8
S'_usr_local_lib_python2_7_dist-packages_django_template_defaulttags.html'
p3341
sg10
S'/usr/local/lib/python2.7/dist-packages/django/template/defaulttags'
p3342
sg12
g13
(g14
g15
NtRp3343
(dp3344
g18
I1
sg19
I0
sg20
I621
sg21
I0
sg22
I0
sg23
I383
sg24
I0
sbssg25
S'\xc0\xd0vt6\xf9\xa3k\x18\x18\xb77\x05\xd5V\xd4'
p3345
ssS'_usr_local_lib_python2_7_dist-packages_django_core_handlers_wsgi'
p3346
(dp3347
g6
(dp3348
g8
S'_usr_local_lib_python2_7_dist-packages_django_core_handlers_wsgi.html'
p3349
sg10
S'/usr/local/lib/python2.7/dist-packages/django/core/handlers/wsgi'
p3350
sg12
g13
(g14
g15
NtRp3351
(dp3352
g18
I1
sg19
I0
sg20
I160
sg21
I0
sg22
I0
sg23
I72
sg24
I0
sbssg25
S'\x1dW\xa9\x07\xa5\xea\x11k\xef\x82J\xce\xbe\xee\xbe3'
p3353
ssS'_usr_local_lib_python2_7_dist-packages_imagekit_admin'
p3354
(dp3355
g6
(dp3356
g8
S'_usr_local_lib_python2_7_dist-packages_imagekit_admin.html'
p3357
sg10
S'/usr/local/lib/python2.7/dist-packages/imagekit/admin'
p3358
sg12
g13
(g14
g15
NtRp3359
(dp3360
g18
I1
sg19
I0
sg20
I18
sg21
I0
sg22
I0
sg23
I11
sg24
I0
sbssg25
S'|\xd2\x05-}\x16\x06\x9fqax\x9934\x82E'
p3361
ssS'_usr_local_lib_python2_7_dist-packages_django_template_loaders_app_directories'
p3362
(dp3363
g6
(dp3364
g8
S'_usr_local_lib_python2_7_dist-packages_django_template_loaders_app_directories.html'
p3365
sg10
S'/usr/local/lib/python2.7/dist-packages/django/template/loaders/app_directories'
p3366
sg12
g13
(g14
g15
NtRp3367
(dp3368
g18
I1
sg19
I0
sg20
I42
sg21
I0
sg22
I0
sg23
I17
sg24
I0
sbssg25
S'\x85\xca\x18\x9eU\x8bu\xfd4\x85\xc8<\xc1+\xbd\xf1'
p3369
ssS'_usr_local_lib_python2_7_dist-packages_django_db_migrations_migration'
p3370
(dp3371
g6
(dp3372
g8
S'_usr_local_lib_python2_7_dist-packages_django_db_migrations_migration.html'
p3373
sg10
S'/usr/local/lib/python2.7/dist-packages/django/db/migrations/migration'
p3374
sg12
g13
(g14
g15
NtRp3375
(dp3376
g18
I1
sg19
I0
sg20
I78
sg21
I0
sg22
I0
sg23
I34
sg24
I0
sbssg25
S'P\xa2\x07C\xb1o\x04\xae\xcb`\x7f\xff5a\xa9\xf8'
p3377
ssS'_usr_local_lib_python2_7_dist-packages_django_contrib_sessions_models'
p3378
(dp3379
g6
(dp3380
g8
S'_usr_local_lib_python2_7_dist-packages_django_contrib_sessions_models.html'
p3381
sg10
S'/usr/local/lib/python2.7/dist-packages/django/contrib/sessions/models'
p3382
sg12
g13
(g14
g15
NtRp3383
(dp3384
g18
I1
sg19
I0
sg20
I24
sg21
I0
sg22
I0
sg23
I7
sg24
I0
sbssg25
S'\xdb/\xe7/\xd6\xed\xfa\xb4\xc4\x06Q\x93\xa3\xbcB!'
p3385
ssS'_usr_local_lib_python2_7_dist-packages_six'
p3386
(dp3387
g6
(dp3388
g8
S'_usr_local_lib_python2_7_dist-packages_six.html'
p3389
sg10
S'/usr/local/lib/python2.7/dist-packages/six'
p3390
sg12
g13
(g14
g15
NtRp3391
(dp3392
g18
I1
sg19
I0
sg20
I393
sg21
I0
sg22
I0
sg23
I186
sg24
I0
sbssg25
S'\xf3~\xf7B\t6\xe6\xc6\xeeR5\xa6"\xc9\xe0\xe1'
p3393
ssS'_usr_local_lib_python2_7_dist-packages_django_test_signals'
p3394
(dp3395
g6
(dp3396
g8
S'_usr_local_lib_python2_7_dist-packages_django_test_signals.html'
p3397
sg10
S'/usr/local/lib/python2.7/dist-packages/django/test/signals'
p3398
sg12
g13
(g14
g15
NtRp3399
(dp3400
g18
I1
sg19
I0
sg20
I79
sg21
I0
sg22
I0
sg23
I57
sg24
I0
sbssg25
S'\xf1\xb45\xec\x02\xf3\xa4\x1a\xe7xou\xeb}\xfb\xb4'
p3401
ssS'_usr_local_lib_python2_7_dist-packages_django_core_validators'
p3402
(dp3403
g6
(dp3404
g8
S'_usr_local_lib_python2_7_dist-packages_django_core_validators.html'
p3405
sg10
S'/usr/local/lib/python2.7/dist-packages/django/core/validators'
p3406
sg12
g13
(g14
g15
NtRp3407
(dp3408
g18
I1
sg19
I0
sg20
I178
sg21
I0
sg22
I0
sg23
I78
sg24
I0
sbssg25
S'*QEV1Ofz+\xb0\xc7\x8b\xff\x04\x87\x12'
p3409
ssS'_usr_local_lib_python2_7_dist-packages_imagekit_models_fields_utils'
p3410
(dp3411
g6
(dp3412
g8
S'_usr_local_lib_python2_7_dist-packages_imagekit_models_fields_utils.html'
p3413
sg10
S'/usr/local/lib/python2.7/dist-packages/imagekit/models/fields/utils'
p3414
sg12
g13
(g14
g15
NtRp3415
(dp3416
g18
I1
sg19
I0
sg20
I16
sg21
I0
sg22
I0
sg23
I2
sg24
I0
sbssg25
S"E\xd2\x9b\xe9\xd8\x99\x1f'H\x1a*\xd6\xc2`\x98\x8f"
p3417
ssS'_usr_local_lib_python2_7_dist-packages_debug_toolbar_panels_sql_panel'
p3418
(dp3419
g6
(dp3420
g8
S'_usr_local_lib_python2_7_dist-packages_debug_toolbar_panels_sql_panel.html'
p3421
sg10
S'/usr/local/lib/python2.7/dist-packages/debug_toolbar/panels/sql/panel'
p3422
sg12
g13
(g14
g15
NtRp3423
(dp3424
g18
I1
sg19
I0
sg20
I133
sg21
I0
sg22
I0
sg23
I105
sg24
I0
sbssg25
S'\xfd\xe7S\x08x\x8d)\x02\x14Rr\x0f\x8d.\xfb\xb5'
p3425
ssS'_usr_local_lib_python2_7_dist-packages_django_contrib_contenttypes_checks'
p3426
(dp3427
g6
(dp3428
g8
S'_usr_local_lib_python2_7_dist-packages_django_contrib_contenttypes_checks.html'
p3429
sg10
S'/usr/local/lib/python2.7/dist-packages/django/contrib/contenttypes/checks'
p3430
sg12
g13
(g14
g15
NtRp3431
(dp3432
g18
I1
sg19
I0
sg20
I10
sg21
I0
sg22
I0
sg23
I1
sg24
I0
sbssg25
S'n\xbcO\xc7R\x10\x98\xf4\x90\xb0\x1d\xb9\x891\x9bk'
p3433
ssS'_usr_local_lib_python2_7_dist-packages_django_views_debug'
p3434
(dp3435
g6
(dp3436
g8
S'_usr_local_lib_python2_7_dist-packages_django_views_debug.html'
p3437
sg10
S'/usr/local/lib/python2.7/dist-packages/django/views/debug'
p3438
sg12
g13
(g14
g15
NtRp3439
(dp3440
g18
I1
sg19
I0
sg20
I302
sg21
I0
sg22
I0
sg23
I250
sg24
I0
sbssg25
S':\xbb\xbc\xbdp[}\x95\xd9&\xaf\x8f\x8c\x8b\xb0\xc1'
p3441
ssS'_usr_local_lib_python2_7_dist-packages_PIL_BmpImagePlugin'
p3442
(dp3443
g6
(dp3444
g8
S'_usr_local_lib_python2_7_dist-packages_PIL_BmpImagePlugin.html'
p3445
sg10
S'/usr/local/lib/python2.7/dist-packages/PIL/BmpImagePlugin'
p3446
sg12
g13
(g14
g15
NtRp3447
(dp3448
g18
I1
sg19
I0
sg20
I124
sg21
I0
sg22
I0
sg23
I98
sg24
I0
sbssg25
S'X^R \xbe3\x02\x0f\xd1\x92{H\x107\x00f'
p3449
ssS'_usr_local_lib_python2_7_dist-packages_django_core_cache___init__'
p3450
(dp3451
g6
(dp3452
g8
S'_usr_local_lib_python2_7_dist-packages_django_core_cache___init__.html'
p3453
sg10
S'/usr/local/lib/python2.7/dist-packages/django/core/cache/__init__'
p3454
sg12
g13
(g14
g15
NtRp3455
(dp3456
g18
I1
sg19
I0
sg20
I72
sg21
I0
sg22
I0
sg23
I14
sg24
I0
sbssg25
S'\xe9\xdc\xc7\xe6\xbad\xe2\x1dPA7\x14\x83\xe1\xdf\xda'
p3457
ssS'_usr_local_lib_python2_7_dist-packages_django_contrib_admin_models'
p3458
(dp3459
g6
(dp3460
g8
S'_usr_local_lib_python2_7_dist-packages_django_contrib_admin_models.html'
p3461
sg10
S'/usr/local/lib/python2.7/dist-packages/django/contrib/admin/models'
p3462
sg12
g13
(g14
g15
NtRp3463
(dp3464
g18
I1
sg19
I0
sg20
I57
sg21
I0
sg22
I0
sg23
I21
sg24
I0
sbssg25
S'\xde\xee:7u\xca\x9bwwf@9\x18I\x12\x18'
p3465
ssS'_usr_local_lib_python2_7_dist-packages_debug_toolbar_panels_signals'
p3466
(dp3467
g6
(dp3468
g8
S'_usr_local_lib_python2_7_dist-packages_debug_toolbar_panels_signals.html'
p3469
sg10
S'/usr/local/lib/python2.7/dist-packages/debug_toolbar/panels/signals'
p3470
sg12
g13
(g14
g15
NtRp3471
(dp3472
g18
I1
sg19
I0
sg20
I57
sg21
I0
sg22
I0
sg23
I37
sg24
I0
sbssg25
S"\x04E\xebW\xc3O\xd7RKZD\x17\x9e7'\xa5"
p3473
ssS'_usr_local_lib_python2_7_dist-packages_django_apps___init__'
p3474
(dp3475
g6
(dp3476
g8
S'_usr_local_lib_python2_7_dist-packages_django_apps___init__.html'
p3477
sg10
S'/usr/local/lib/python2.7/dist-packages/django/apps/__init__'
p3478
sg12
g13
(g14
g15
NtRp3479
(dp3480
g18
I1
sg19
I0
sg20
I2
sg21
I0
sg22
I0
sg23
I0
sg24
I0
sbssg25
S'\xaf\xd5\x87SN\x8c\x98\xdfl\xc6\x14\xe6\x0eO\xf7\x0c'
p3481
ssS'_usr_local_lib_python2_7_dist-packages_django_utils_datetime_safe'
p3482
(dp3483
g6
(dp3484
g8
S'_usr_local_lib_python2_7_dist-packages_django_utils_datetime_safe.html'
p3485
sg10
S'/usr/local/lib/python2.7/dist-packages/django/utils/datetime_safe'
p3486
sg12
g13
(g14
g15
NtRp3487
(dp3488
g18
I1
sg19
I0
sg20
I56
sg21
I0
sg22
I0
sg23
I42
sg24
I0
sbssg25
S'\xad%\xf7\x8aK@2\xdc\xa2\x8b\x0b\xb5\x90\xc4\xc2\xc1'
p3489
ssS'_usr_local_lib_python2_7_dist-packages_django_forms_utils'
p3490
(dp3491
g6
(dp3492
g8
S'_usr_local_lib_python2_7_dist-packages_django_forms_utils.html'
p3493
sg10
S'/usr/local/lib/python2.7/dist-packages/django/forms/utils'
p3494
sg12
g13
(g14
g15
NtRp3495
(dp3496
g18
I1
sg19
I0
sg20
I87
sg21
I0
sg22
I0
sg23
I48
sg24
I0
sbssg25
S'\xc5\x00\xc4\xfe\x9da6\xf5\xb4\x9514\xb5\xb4v\xab'
p3497
ssS'_usr_local_lib_python2_7_dist-packages_django_contrib_auth_forms'
p3498
(dp3499
g6
(dp3500
g8
S'_usr_local_lib_python2_7_dist-packages_django_contrib_auth_forms.html'
p3501
sg10
S'/usr/local/lib/python2.7/dist-packages/django/contrib/auth/forms'
p3502
sg12
g13
(g14
g15
NtRp3503
(dp3504
g18
I1
sg19
I0
sg20
I189
sg21
I0
sg22
I0
sg23
I110
sg24
I0
sbssg25
S'\xfc\xb9s\x8b\x86\xce\xbd\x07\x0e\x86\xf5?\xc8\xdc\xc2\xdf'
p3505
ssS'_usr_local_lib_python2_7_dist-packages_debug_toolbar_views'
p3506
(dp3507
g6
(dp3508
g8
S'_usr_local_lib_python2_7_dist-packages_debug_toolbar_views.html'
p3509
sg10
S'/usr/local/lib/python2.7/dist-packages/debug_toolbar/views'
p3510
sg12
g13
(g14
g15
NtRp3511
(dp3512
g18
I1
sg19
I0
sg20
I13
sg21
I0
sg22
I0
sg23
I7
sg24
I0
sbssg25
S'\x03\x93\xa1\x05\xdd 8\xb4=\xcb\xdd\xcc\xa8e\xe5a'
p3513
ssS'_usr_local_lib_python2_7_dist-packages_django___init__'
p3514
(dp3515
g6
(dp3516
g8
S'_usr_local_lib_python2_7_dist-packages_django___init__.html'
p3517
sg10
S'/usr/local/lib/python2.7/dist-packages/django/__init__'
p3518
sg12
g13
(g14
g15
NtRp3519
(dp3520
g18
I1
sg19
I0
sg20
I10
sg21
I0
sg22
I0
sg23
I0
sg24
I0
sbssg25
S'\x7f\xcal\xa2R\x06\xd1\xc6\xa5\xab\xa3\xe7|\x00\xd7\x8f'
p3521
sssS'version'
p3522
S'3.7.1'
p3523
sS'settings'
p3524
S'\x98\xa8x\xfe"r\xb5K\x98\xb1N\\\x99\x9e\xf3\xe5'
p3525
sS'format'
p3526
I1
s.